L166 LINKER/LOCATER V5.25                                                               09/03/2014  17:57:06  PAGE 1


L166 LINKER/LOCATER V5.25, INVOKED BY:
C:\KEIL4\C166\BIN\L166.EXE .\obj\Start_V2.obj, .\obj\MAIN.obj, .\obj\GPT1.obj, .\obj\IO.obj, .\obj\CC2.obj, .\obj\GPT2.o
>> bj, .\obj\global.obj, .\obj\8255.obj, .\obj\delay.obj, .\obj\dpram.obj, .\obj\dio.obj, .\obj\mvb.obj, .\obj\CAN_Xc164
>> .obj, .\obj\PELI.obj, .\obj\emcy.obj, .\obj\lss.obj, .\obj\objacces.obj, .\obj\pdo.obj, .\obj\states.obj, .\obj\sync.
>> obj, .\obj\temp.obj, .\obj\timer.obj, .\obj\ds401.obj, .\obj\ObjDict.obj TO .\obj\EBCU_CPU PRINT (.\list\EBCU_CPU.m66
>> ) CLASSES (ICODE (0XC00000-0XC1FFFF), NCODE (0XC00000-0XC0FFFF), FCONST (0XC00000-0XC1FFFF), HCONST (0XC00000-0XC1FFF
>> F), XCONST (0XC00000-0XC1FFFF), NCONST (0XC04000-0XC07FFF), NDATA (0XC000-0XCFFF, 0XF600-0XFDFF), NDATA0 (0XC000-0XCF
>> FF, 0XF600-0XFDFF), SDATA (0XC000-0XCFFF, 0XF600-0XFDFF), SDATA0 (0XC000-0XCFFF, 0XF600-0XFDFF), IDATA (0XF600-0XFDFF
>> ), IDATA0 (0XF600-0XFDFF), FDATA (0XC000-0XCFFF, 0XF600-0XFDFF), FDATA0 (0XC000-0XCFFF, 0XF600-0XFDFF), HDATA (0XC000
>> -0XCFFF, 0XF600-0XFDFF), HDATA0 (0XC000-0XCFFF, 0XF600-0XFDFF), XDATA (0XC000-0XCFFF, 0XF600-0XFDFF), XDATA0 (0XC000-
>> 0XCFFF, 0XF600-0XFDFF)) CINITTAB (0XC00000-0XC1FFFF)


CPU TYPE:     C167 or derivative
CPU MODE:     SEGMENTED
MEMORY MODEL: SMALL


INPUT MODULES INCLUDED:
  .\obj\Start_V2.obj (?C_STARTUP)
         COMMENT TYPE 128: A166 V5.36.0.1
  .\obj\MAIN.obj (MAIN)
         COMMENT TYPE 128: C166 V7.53.0.0
  .\obj\GPT1.obj (GPT1)
         COMMENT TYPE 128: C166 V7.53.0.0
  .\obj\IO.obj (IO)
         COMMENT TYPE 128: C166 V7.53.0.0
  .\obj\CC2.obj (CC2)
         COMMENT TYPE 128: C166 V7.53.0.0
  .\obj\GPT2.obj (GPT2)
         COMMENT TYPE 128: C166 V7.53.0.0
  .\obj\global.obj (GLOBAL)
         COMMENT TYPE 128: C166 V7.53.0.0
  .\obj\8255.obj (8255)
         COMMENT TYPE 128: C166 V7.53.0.0
  .\obj\delay.obj (DELAY)
         COMMENT TYPE 128: C166 V7.53.0.0
  .\obj\dpram.obj (DPRAM)
         COMMENT TYPE 128: C166 V7.53.0.0
  .\obj\dio.obj (DIO)
         COMMENT TYPE 128: C166 V7.53.0.0
  .\obj\mvb.obj (MVB)
         COMMENT TYPE 128: C166 V7.53.0.0
  .\obj\CAN_Xc164.obj (CAN_XC164)
         COMMENT TYPE 128: C166 V7.53.0.0
  .\obj\PELI.obj (PELI)
         COMMENT TYPE 128: C166 V7.53.0.0
  .\obj\emcy.obj (EMCY)
         COMMENT TYPE 128: C166 V7.53.0.0
  .\obj\lss.obj (LSS)
         COMMENT TYPE 128: C166 V7.53.0.0
  .\obj\objacces.obj (OBJACCES)
         COMMENT TYPE 128: C166 V7.53.0.0
  .\obj\pdo.obj (PDO)
         COMMENT TYPE 128: C166 V7.53.0.0
  .\obj\states.obj (STATES)
         COMMENT TYPE 128: C166 V7.53.0.0
  .\obj\sync.obj (SYNC)
L166 LINKER/LOCATER V5.25                                                             09/03/2014  17:57:06  PAGE 2


         COMMENT TYPE 128: C166 V7.53.0.0
  .\obj\temp.obj (TEMP)
         COMMENT TYPE 128: C166 V7.53.0.0
  .\obj\timer.obj (TIMER)
         COMMENT TYPE 128: C166 V7.53.0.0
  .\obj\ds401.obj (DS401)
         COMMENT TYPE 128: C166 V7.53.0.0
  .\obj\ObjDict.obj (OBJDICT)
         COMMENT TYPE 128: C166 V7.53.0.0
  C:\KEIL4\C166\LIB\C167S.LIB (?C_LMUL)
         COMMENT TYPE 128: A166 V5.33
  C:\KEIL4\C166\LIB\C167S.LIB (?C_ULDIV)
         COMMENT TYPE 128: A166 V5.33
  C:\KEIL4\C166\LIB\C167S.LIB (MEMCPY)
         COMMENT TYPE 128: A166 V5.33
  C:\KEIL4\C166\LIB\C167S.LIB (MEMCMP)
         COMMENT TYPE 128: A166 V5.33
  C:\KEIL4\C166\LIB\C167S.LIB (MEMSET)
         COMMENT TYPE 128: C166 V7.04
  C:\KEIL4\C166\LIB\C167S.LIB (?C_ENDINIT)
         COMMENT TYPE 128: A166 V5.33


INTERRUPT PROCEDURES OF MODULE:  .\obj\EBCU_CPU (?C_STARTUP)


INTERRUPT PROCEDURE                 INT  INTERRUPT NAME
=======================================================
?C_RESET                              0  RESET
GPT1_viTmr3                          35  ---  
GPT1_viTmr2                          34  ---  
GPT1_viTmr4                          36  ---  
CC2_viCC16                           48  ---  
CC2_viCC17                           49  ---  
GPT2_viTmr5                          37  ---  


MEMORY MAP OF MODULE:  .\obj\EBCU_CPU (?C_STARTUP)


START     STOP      LENGTH    TYPE  RTYP  ALIGN  TGR  GRP  COMB  CLASS   SECTION NAME
=====================================================================================
00C000H   00C1FFH   000200H   DATA  REL   WORD   ---    1  PUBL  NDATA   ?C_USERSTACK
00C200H   00C21FH   000020H   DATA  REL   WORD   ---    1  PUBL  NDATA   ?C_USERSTACK1
00C220H   00C23FH   000020H   DATA  REL   WORD   ---    1  PUBL  NDATA   ?C_USERSTACK2
00C240H   00C7A8H   000569H   DATA  REL   WORD   ---    1  PUBL  NDATA0  ?ND0?OBJDICT
00C7AAH   00C841H   000098H   DATA  REL   WORD   ---    1  PUBL  NDATA0  ?ND0?TIMER
00C842H   00C8C1H   000080H   DATA  REL   WORD   ---    1  PUBL  NDATA0  ?ND0?MAIN
00C8C2H   00C90DH   00004CH   DATA  REL   WORD   ---    1  PUBL  NDATA0  ?ND0?GLOBAL
00C90EH   00C92FH   000022H   DATA  REL   WORD   ---    1  PUBL  NDATA0  ?ND0?PELI
00C930H   00C933H   000004H   DATA  REL   WORD   ---    1  PUBL  NDATA0  ?ND0?GPT1
00F600H   00F7FFH   000200H   DATA  REL   WORD   ---    2  PUBL  IDATA   ?C_SYSSTACK
00FC00H   00FC1FH   000020H   DATA  ---   BYTE   ---  ---  ---   *REG*   ?C_MAINREGISTERS
00FC20H   00FC3FH   000020H   DATA  ---   BYTE   ---  ---  ---   *REG*   RB_LEVEL9
00FC40H   00FC5FH   000020H   DATA  ---   BYTE   ---  ---  ---   *REG*   RB_LEVEL6
00FC60H   00FC7FH   000020H   DATA  ---   BYTE   ---  ---  ---   *REG*   RB_LEVEL10
00FC80H   00FC9FH   000020H   DATA  ---   BYTE   ---  ---  ---   *REG*   RB_LEVEL7
L166 LINKER/LOCATER V5.25                                                             09/03/2014  17:57:06  PAGE 3


00FCA0H   00FCBFH   000020H   DATA  ---   BYTE   ---  ---  ---   *REG*   RB_LEVEL8
00FCC0H   00FCDFH   000020H   DATA  ---   BYTE   ---  ---  ---   *REG*   RB_LEVEL5
C00000H   C00003H   000004H   ---   ---   ---    ---  ---  ---   * INTVECTOR TABLE *
C00004H   C0001DH   00001AH   CONST ABS   WORD   ---  ---  PRIV  ---     ?C_CLRMEMSEC
C0001EH   C0005DH   000040H   CODE  REL   WORD   ---    3  PUBL  NCODE   ?PR?GPT2
C0005EH   C00079H   00001CH   CODE  REL   WORD   ---    3  PRIV  NCODE   ?PR?MEMCMP
C0007AH   C00087H   00000EH   CODE  REL   WORD   ---    3  PUBL  NCODE   ?PR?TEMP
C00088H   C00097H   000010H   ---   ---   ---    ---  ---  ---   * INTVECTOR TABLE *
C00098H   C000A9H   000012H   CODE  REL   WORD   ---    3  PUBL  NCODE   ?PR?MEMSET
C000AAH   C000B7H   00000EH   CODE  REL   WORD   ---    3  PRIV  NCODE   ?PR?MEMCPY
C000C0H   C000C7H   000008H   ---   ---   ---    ---  ---  ---   * INTVECTOR TABLE *
C000C8H   C009B7H   0008F0H   XDATA REL   WORD   ---  ---  GLOB  ---     ?C_INITSEC
C009B8H   C018E1H   000F2AH   CODE  REL   WORD   ---    3  PUBL  NCODE   ?PR?PDO
C018E2H   C021D9H   0008F8H   CODE  REL   WORD   ---    3  PUBL  NCODE   ?PR?PELI
C021DAH   C026AFH   0004D6H   CODE  REL   WORD   ---    3  PUBL  NCODE   ?PR?OBJACCES
C026B0H   C02A77H   0003C8H   CODE  REL   WORD   ---    3  PUBL  NCODE   ?PR?STATES
C02A78H   C02D61H   0002EAH   CODE  REL   WORD   ---    3  PUBL  NCODE   ?PR?TIMER
C02D62H   C0302FH   0002CEH   CODE  REL   WORD   ---    3  PUBL  NCODE   ?PR?EMCY
C03030H   C031BFH   000190H   CODE  REL   WORD   ---    3  PUBL  NCODE   ?PR?8255
C031C0H   C0332FH   000170H   CODE  REL   WORD   ---    3  PUBL  NCODE   ?PR?OBJDICT
C03330H   C0349DH   00016EH   CODE  REL   WORD   ---    3  PUBL  NCODE   ?PR?MVB
C0349EH   C03605H   000168H   CODE  REL   WORD   ---    3  PUBL  NCODE   ?PR?MAIN
C03606H   C0374DH   000148H   CODE  REL   WORD   ---    3  PUBL  NCODE   ?PR?DS401
C0374EH   C0387BH   00012EH   CODE  REL   WORD   ---    3  PUBL  NCODE   ?PR?SYNC
C0387CH   C0397BH   000100H   CODE  REL   WORD   ---    3  PUBL  NCODE   ?PR?GPT1
C0397CH   C03A7BH   000100H   CODE  REL   WORD   ---    3  PUBL  NCODE   ?PR?CAN_XC164
C03A7CH   C03B3BH   0000C0H   CODE  REL   WORD   ---    3  PUBL  NCODE   ?PR?CC2
C03B3CH   C03BF1H   0000B6H   CODE  REL   WORD   ---    3  PUBL  NCODE   ?PR?DIO
C03BF2H   C03C9BH   0000AAH   CODE  REL   WORD   ---    3  PUBL  NCODE   ?C_LIB_CODE
C03C9CH   C03D41H   0000A6H   CODE  REL   WORD   ---    3  PUBL  NCODE   ?PR?IO
C03D42H   C03DC1H   000080H   CODE  REL   WORD   ---    3  PUBL  NCODE   ?PR?DPRAM
C03DC2H   C03DEFH   00002EH   CODE  REL   WORD   ---    3  PUBL  NCODE   ?PR?DELAY
C03DF0H   C03F5FH   000170H   CODE  REL   WORD   ---  ---  PRIV  ICODE   ?C_STARTUP_CODE
C04000H   C040AEH   0000AFH   DATA  REL   WORD   ---    4  PUBL  NCONST  ?NC?OBJDICT
C040B0H   C040D6H   000027H   DATA  REL   WORD   ---    4  PUBL  NCONST  ?NC?STATES
C040D8H   C040FCH   000025H   DATA  REL   WORD   ---    4  PUBL  NCONST  ?NC?MAIN
C040FDH   C04116H   00001AH   DATA  REL   BYTE   ---    4  PUBL  NCONST  ?NC?CAN_XC164
C04118H   C04127H   000010H   DATA  REL   WORD   ---    4  PUBL  NCONST  ?NC?8255
C04128H   C04137H   000010H   DATA  REL   WORD   ---    4  PUBL  NCONST  ?NC?PDO



GROUP LIST OF MODULE:  .\obj\EBCU_CPU (?C_STARTUP)


GROUP NAME                           TYPE  TGR  GRP  CLASS       SECTION NAME
=============================================================================
NDATA                                DATA  ---    1  NDATA       ?C_USERSTACK
                                                     NDATA       ?C_USERSTACK1
                                                     NDATA       ?C_USERSTACK2
                                                     NDATA0      ?ND0?MAIN
                                                     NDATA0      ?ND0?GPT1
                                                     NDATA0      ?ND0?GLOBAL
                                                     NDATA0      ?ND0?PELI
                                                     NDATA0      ?ND0?TIMER
                                                     NDATA0      ?ND0?OBJDICT

L166 LINKER/LOCATER V5.25                                                             09/03/2014  17:57:06  PAGE 4


SDATA                                DATA  ---    2  IDATA       ?C_SYSSTACK

NCODE                                CODE  ---    3  NCODE       ?PR?MAIN
                                                     NCODE       ?PR?GPT1
                                                     NCODE       ?PR?IO
                                                     NCODE       ?PR?CC2
                                                     NCODE       ?PR?GPT2
                                                     NCODE       ?PR?8255
                                                     NCODE       ?PR?DELAY
                                                     NCODE       ?PR?DPRAM
                                                     NCODE       ?PR?DIO
                                                     NCODE       ?PR?MVB
                                                     NCODE       ?PR?CAN_XC164
                                                     NCODE       ?PR?PELI
                                                     NCODE       ?PR?EMCY
                                                     NCODE       ?PR?OBJACCES
                                                     NCODE       ?PR?PDO
                                                     NCODE       ?PR?STATES
                                                     NCODE       ?PR?SYNC
                                                     NCODE       ?PR?TEMP
                                                     NCODE       ?PR?TIMER
                                                     NCODE       ?PR?DS401
                                                     NCODE       ?PR?OBJDICT
                                                     NCODE       ?C_LIB_CODE
                                                     NCODE       ?PR?MEMCPY
                                                     NCODE       ?PR?MEMCMP
                                                     NCODE       ?PR?MEMSET

NCONST                               DATA  ---    4  NCONST      ?NC?MAIN
                                                     NCONST      ?NC?8255
                                                     NCONST      ?NC?CAN_XC164
                                                     NCONST      ?NC?PDO
                                                     NCONST      ?NC?STATES
                                                     NCONST      ?NC?OBJDICT




PUBLIC SYMBOLS OF MODULE:  .\obj\EBCU_CPU (?C_STARTUP)


      VALUE       PUBLIC SYMBOL NAME               REP   TGR  CLASS   SECTION
      =======================================================================
      C00004H     ?C_CLRMEMSECSTART                VAR   ---  ---     ---
      C009B6H     ?C_ENDINIT                       VAR   ---  ---     ?C_INITSEC
      C000C8H     ?C_INITSECSTART                  VAR   ---  ---     ---
      C03BF2H     ?C_LMUL                          LABEL ---  NCODE   ?C_LIB_CODE
      C00000H     ?C_NCONSTBASE                    CONST ---  ---     ---
      0000C0H     ?C_NCONSTBASESEG                 CONST ---  ---     ---
      004000H     ?C_NDATABASE                     CONST ---  ---     ---
      000000H     ?C_NDATABASESEG                  CONST ---  ---     ---
      000000H     ?C_PAGEDPP0                      CONST ---  ---     ---
      000301H     ?C_PAGEDPP1                      CONST ---  ---     ---
      000003H     ?C_PAGEDPP2                      CONST ---  ---     ---
      C03DF0H     ?C_STARTUP                       LABEL ---  ICODE   ?C_STARTUP_CODE
      00F600H     ?C_SYSSTKBOT                     VAR   ---  IDATA   ?C_SYSSTACK
      00F800H     ?C_SYSSTKTOP                     VAR   ---  IDATA   ?C_SYSSTACK
L166 LINKER/LOCATER V5.25                                                             09/03/2014  17:57:06  PAGE 5


      C03C0AH     ?C_ULDIV                         LABEL ---  NCODE   ?C_LIB_CODE
      00C000H     ?C_USRSTKBOT                     VAR   ---  NDATA   ?C_USERSTACK
      000000H     ?L?VECSC                         CONST ---  ---     ---
      00C8CCH     ADIO                             VAR   ---  NDATA0  ?ND0?GLOBAL
      C03A7CH     CC2_vInit                        LABEL ---  NCODE   ?PR?CC2
      C03B04H     CC2_viCC16                       LABEL ---  NCODE   ?PR?CC2
      C03B20H     CC2_viCC17                       LABEL ---  NCODE   ?PR?CC2
      00C797H     Change_Polarity_Outputs_8_Bit    VAR   ---  NDATA0  ?ND0?OBJDICT
      C01B32H     ClearBitMask                     LABEL ---  NCODE   ?PR?PELI
      C010ECH     CopyBits                         LABEL ---  NCODE   ?PR?PDO
      C03BB0H     DERROR                           LABEL ---  NCODE   ?PR?DIO
      C03B82H     DIN                              LABEL ---  NCODE   ?PR?DIO
      00C8C2H     DIO                              VAR   ---  NDATA0  ?ND0?GLOBAL
      00C8ECH     DIO_ALL                          VAR   ---  NDATA0  ?ND0?GLOBAL
      C03B3CH     DOUT                             LABEL ---  NCODE   ?PR?DIO
      C02BF4H     DelAlarm                         LABEL ---  NCODE   ?PR?TIMER
      C03DC2H     DelayMs                          LABEL ---  NCODE   ?PR?DELAY
      C02F68H     EMCY_errorRecovered              LABEL ---  NCODE   ?PR?EMCY
      C02E36H     EMCY_setError                    LABEL ---  NCODE   ?PR?EMCY
      00C785H     Error_Mode_Outputs_8_Bit         VAR   ---  NDATA0  ?ND0?OBJDICT
      00C787H     Error_Value_Outputs_8_Bit        VAR   ---  NDATA0  ?ND0?OBJDICT
      00C78CH     Filter_Constant_Input_8_Bit      VAR   ---  NDATA0  ?ND0?OBJDICT
      C0387CH     GPT1_vInit                       LABEL ---  NCODE   ?PR?GPT1
      C038C2H     GPT1_viTmr2                      LABEL ---  NCODE   ?PR?GPT1
      C038A8H     GPT1_viTmr3                      LABEL ---  NCODE   ?PR?GPT1
      C038E6H     GPT1_viTmr4                      LABEL ---  NCODE   ?PR?GPT1
      C0001EH     GPT2_vInit                       LABEL ---  NCODE   ?PR?GPT2
      C0003EH     GPT2_viTmr5                      LABEL ---  NCODE   ?PR?GPT2
      00C789H     Global_Interrupt_Enable_Digital  VAR   ---  NDATA0  ?ND0?OBJDICT
      C03C9CH     IO_vInit                         LABEL ---  NCODE   ?PR?IO
      00C790H     Interrupt_Mask_Any_Change_8_Bit  VAR   ---  NDATA0  ?ND0?OBJDICT
      00C78EH     Interrupt_Mask_High_to_Low_8_Bit VAR   ---  NDATA0  ?ND0?OBJDICT
      00C78DH     Interrupt_Mask_Low_to_High_8_Bit VAR   ---  NDATA0  ?ND0?OBJDICT
      C0349EH     MAIN_vInit                       LABEL ---  NCODE   ?PR?MAIN
      C034BAH     MAIN_vUnlockProtecReg            LABEL ---  NCODE   ?PR?MAIN
      00C522H     ObjDict_Data                     VAR   ---  NDATA0  ?ND0?OBJDICT
      00C4A0H     ObjDict_Index1000                VAR   ---  NDATA0  ?ND0?OBJDICT
      00C470H     ObjDict_Index1001                VAR   ---  NDATA0  ?ND0?OBJDICT
      00C41CH     ObjDict_Index1003                VAR   ---  NDATA0  ?ND0?OBJDICT
      00C2E8H     ObjDict_Index1003_callbacks      VAR   ---  NDATA0  ?ND0?OBJDICT
      00C3CCH     ObjDict_Index1005                VAR   ---  NDATA0  ?ND0?OBJDICT
      00C2C2H     ObjDict_Index1005_callbacks      VAR   ---  NDATA0  ?ND0?OBJDICT
      00C338H     ObjDict_Index1008                VAR   ---  NDATA0  ?ND0?OBJDICT
      00C2F8H     ObjDict_Index1009                VAR   ---  NDATA0  ?ND0?OBJDICT
      00C262H     ObjDict_Index100A                VAR   ---  NDATA0  ?ND0?OBJDICT
      00C478H     ObjDict_Index1010                VAR   ---  NDATA0  ?ND0?OBJDICT
      00C42CH     ObjDict_Index1011                VAR   ---  NDATA0  ?ND0?OBJDICT
      00C3D4H     ObjDict_Index1014                VAR   ---  NDATA0  ?ND0?OBJDICT
      00C38CH     ObjDict_Index1016                VAR   ---  NDATA0  ?ND0?OBJDICT
      00C340H     ObjDict_Index1017                VAR   ---  NDATA0  ?ND0?OBJDICT
      00C280H     ObjDict_Index1017_callbacks      VAR   ---  NDATA0  ?ND0?OBJDICT
      00C300H     ObjDict_Index1018                VAR   ---  NDATA0  ?ND0?OBJDICT
      00C454H     ObjDict_Index1200                VAR   ---  NDATA0  ?ND0?OBJDICT
      00C3ECH     ObjDict_Index1400                VAR   ---  NDATA0  ?ND0?OBJDICT
      00C3BCH     ObjDict_Index1600                VAR   ---  NDATA0  ?ND0?OBJDICT
      00C348H     ObjDict_Index1800                VAR   ---  NDATA0  ?ND0?OBJDICT
      00C282H     ObjDict_Index1800_callbacks      VAR   ---  NDATA0  ?ND0?OBJDICT
L166 LINKER/LOCATER V5.25                                                             09/03/2014  17:57:06  PAGE 6


      00C26AH     ObjDict_Index1A00                VAR   ---  NDATA0  ?ND0?OBJDICT
      00C3DCH     ObjDict_Index6000                VAR   ---  NDATA0  ?ND0?OBJDICT
      00C39CH     ObjDict_Index6002                VAR   ---  NDATA0  ?ND0?OBJDICT
      00C378H     ObjDict_Index6003                VAR   ---  NDATA0  ?ND0?OBJDICT
      00C2F0H     ObjDict_Index6005                VAR   ---  NDATA0  ?ND0?OBJDICT
      00C2D8H     ObjDict_Index6006                VAR   ---  NDATA0  ?ND0?OBJDICT
      00C2C4H     ObjDict_Index6007                VAR   ---  NDATA0  ?ND0?OBJDICT
      00C2A2H     ObjDict_Index6008                VAR   ---  NDATA0  ?ND0?OBJDICT
      00C3ACH     ObjDict_Index6200                VAR   ---  NDATA0  ?ND0?OBJDICT
      00C328H     ObjDict_Index6202                VAR   ---  NDATA0  ?ND0?OBJDICT
      00C2B2H     ObjDict_Index6206                VAR   ---  NDATA0  ?ND0?OBJDICT
      00C28EH     ObjDict_Index6207                VAR   ---  NDATA0  ?ND0?OBJDICT
      00C25EH     ObjDict_ObjdictSize              VAR   ---  NDATA0  ?ND0?OBJDICT
      00C244H     ObjDict_PDO_status               VAR   ---  NDATA0  ?ND0?OBJDICT
      00C786H     ObjDict_bDeviceNodeId            VAR   ---  NDATA0  ?ND0?OBJDICT
      00C4C4H     ObjDict_firstIndex               VAR   ---  NDATA0  ?ND0?OBJDICT
      00C4E6H     ObjDict_heartBeatTimers          VAR   ---  NDATA0  ?ND0?OBJDICT
      00C7A4H     ObjDict_highestSubIndex_obj1003  VAR   ---  NDATA0  ?ND0?OBJDICT
      00C784H     ObjDict_highestSubIndex_obj1010  VAR   ---  NDATA0  ?ND0?OBJDICT
      00C7A7H     ObjDict_highestSubIndex_obj1011  VAR   ---  NDATA0  ?ND0?OBJDICT
      00C79DH     ObjDict_highestSubIndex_obj1016  VAR   ---  NDATA0  ?ND0?OBJDICT
      00C798H     ObjDict_highestSubIndex_obj1018  VAR   ---  NDATA0  ?ND0?OBJDICT
      00C7A8H     ObjDict_highestSubIndex_obj1200  VAR   ---  NDATA0  ?ND0?OBJDICT
      00C7A3H     ObjDict_highestSubIndex_obj1400  VAR   ---  NDATA0  ?ND0?OBJDICT
      00C7A1H     ObjDict_highestSubIndex_obj1600  VAR   ---  NDATA0  ?ND0?OBJDICT
      00C79AH     ObjDict_highestSubIndex_obj1800  VAR   ---  NDATA0  ?ND0?OBJDICT
      00C791H     ObjDict_highestSubIndex_obj1A00  VAR   ---  NDATA0  ?ND0?OBJDICT
      00C7A2H     ObjDict_highestSubIndex_obj6000  VAR   ---  NDATA0  ?ND0?OBJDICT
      00C79FH     ObjDict_highestSubIndex_obj6002  VAR   ---  NDATA0  ?ND0?OBJDICT
      00C79BH     ObjDict_highestSubIndex_obj6003  VAR   ---  NDATA0  ?ND0?OBJDICT
      00C796H     ObjDict_highestSubIndex_obj6006  VAR   ---  NDATA0  ?ND0?OBJDICT
      00C795H     ObjDict_highestSubIndex_obj6007  VAR   ---  NDATA0  ?ND0?OBJDICT
      00C793H     ObjDict_highestSubIndex_obj6008  VAR   ---  NDATA0  ?ND0?OBJDICT
      00C7A0H     ObjDict_highestSubIndex_obj6200  VAR   ---  NDATA0  ?ND0?OBJDICT
      00C799H     ObjDict_highestSubIndex_obj6202  VAR   ---  NDATA0  ?ND0?OBJDICT
      00C794H     ObjDict_highestSubIndex_obj6206  VAR   ---  NDATA0  ?ND0?OBJDICT
      00C792H     ObjDict_highestSubIndex_obj6207  VAR   ---  NDATA0  ?ND0?OBJDICT
      C040AEH     ObjDict_iam_a_slave              VAR   ---  NCONST  ?NC?OBJDICT
      00C4ACH     ObjDict_lastIndex                VAR   ---  NDATA0  ?ND0?OBJDICT
      00C51EH     ObjDict_obj1000                  VAR   ---  NDATA0  ?ND0?OBJDICT
      00C79CH     ObjDict_obj1001                  VAR   ---  NDATA0  ?ND0?OBJDICT
      00C51AH     ObjDict_obj1003                  VAR   ---  NDATA0  ?ND0?OBJDICT
      00C512H     ObjDict_obj1005                  VAR   ---  NDATA0  ?ND0?OBJDICT
      00C50AH     ObjDict_obj1006                  VAR   ---  NDATA0  ?ND0?OBJDICT
      00C4FAH     ObjDict_obj1008                  VAR   ---  NDATA0  ?ND0?OBJDICT
      00C4ECH     ObjDict_obj1009                  VAR   ---  NDATA0  ?ND0?OBJDICT
      00C4D8H     ObjDict_obj100A                  VAR   ---  NDATA0  ?ND0?OBJDICT
      00C25AH     ObjDict_obj1010_Save_All_Para... VAR   ---  NDATA0  ?ND0?OBJDICT
      00C29EH     ObjDict_obj1010_Save_Applicat... VAR   ---  NDATA0  ?ND0?OBJDICT
      00C4BCH     ObjDict_obj1010_Save_Communic... VAR   ---  NDATA0  ?ND0?OBJDICT
      00C388H     ObjDict_obj1010_Save_Manufact... VAR   ---  NDATA0  ?ND0?OBJDICT
      00C256H     ObjDict_obj1011_Restore_All_D... VAR   ---  NDATA0  ?ND0?OBJDICT
      00C27AH     ObjDict_obj1011_Restore_Appli... VAR   ---  NDATA0  ?ND0?OBJDICT
      00C4B8H     ObjDict_obj1011_Restore_Commu... VAR   ---  NDATA0  ?ND0?OBJDICT
      00C2ECH     ObjDict_obj1011_Restore_Manuf... VAR   ---  NDATA0  ?ND0?OBJDICT
      00C516H     ObjDict_obj1014                  VAR   ---  NDATA0  ?ND0?OBJDICT
      00C506H     ObjDict_obj1016                  VAR   ---  NDATA0  ?ND0?OBJDICT
L166 LINKER/LOCATER V5.25                                                             09/03/2014  17:57:06  PAGE 7


      00C504H     ObjDict_obj1017                  VAR   ---  NDATA0  ?ND0?OBJDICT
      00C4C0H     ObjDict_obj1018_Product_Code     VAR   ---  NDATA0  ?ND0?OBJDICT
      00C4E8H     ObjDict_obj1018_Revision_Number  VAR   ---  NDATA0  ?ND0?OBJDICT
      00C4D4H     ObjDict_obj1018_Serial_Number    VAR   ---  NDATA0  ?ND0?OBJDICT
      00C2D4H     ObjDict_obj1018_Vendor_ID        VAR   ---  NDATA0  ?ND0?OBJDICT
      00C240H     ObjDict_obj1200_COB_ID_Client... VAR   ---  NDATA0  ?ND0?OBJDICT
      00C4F6H     ObjDict_obj1200_COB_ID_Server... VAR   ---  NDATA0  ?ND0?OBJDICT
      00C4A8H     ObjDict_obj1400_COB_ID_used_b... VAR   ---  NDATA0  ?ND0?OBJDICT
      00C78BH     ObjDict_obj1400_Compatibility... VAR   ---  NDATA0  ?ND0?OBJDICT
      00C27EH     ObjDict_obj1400_Event_Timer      VAR   ---  NDATA0  ?ND0?OBJDICT
      00C4D2H     ObjDict_obj1400_Inhibit_Time     VAR   ---  NDATA0  ?ND0?OBJDICT
      00C7A5H     ObjDict_obj1400_Transmission_... VAR   ---  NDATA0  ?ND0?OBJDICT
      00C50EH     ObjDict_obj1600                  VAR   ---  NDATA0  ?ND0?OBJDICT
      00C46CH     ObjDict_obj1800_COB_ID_used_b... VAR   ---  NDATA0  ?ND0?OBJDICT
      00C78AH     ObjDict_obj1800_Compatibility... VAR   ---  NDATA0  ?ND0?OBJDICT
      00C260H     ObjDict_obj1800_Event_Timer      VAR   ---  NDATA0  ?ND0?OBJDICT
      00C4D0H     ObjDict_obj1800_Inhibit_Time     VAR   ---  NDATA0  ?ND0?OBJDICT
      00C79EH     ObjDict_obj1800_Transmission_... VAR   ---  NDATA0  ?ND0?OBJDICT
      00C4E2H     ObjDict_obj1A00                  VAR   ---  NDATA0  ?ND0?OBJDICT
      C04000H     ObjDict_objdict                  VAR   ---  NCONST  ?NC?OBJDICT
      C031DCH     ObjDict_scanIndexOD              LABEL ---  NCODE   ?PR?OBJDICT
      C031C0H     ObjDict_valueRangeTest           LABEL ---  NCODE   ?PR?OBJDICT
      C03754H     OnCOB_ID_SyncUpdate              LABEL ---  NCODE   ?PR?SYNC
      C02D62H     OnNumberOfErrorsUpdate           LABEL ---  NCODE   ?PR?EMCY
      C013D0H     PDOEventTimerAlarm               LABEL ---  NCODE   ?PR?PDO
      C01418H     PDOInhibitTimerAlarm             LABEL ---  NCODE   ?PR?PDO
      C0179CH     PDOInit                          LABEL ---  NCODE   ?PR?PDO
      C0181CH     PDOStop                          LABEL ---  NCODE   ?PR?PDO
      00C788H     Polarity_Input_8_Bit             VAR   ---  NDATA0  ?ND0?OBJDICT
      000000H     RESET                            INTNO ---  ---     ---
      C01FD8H     ReadALCReg                       LABEL ---  NCODE   ?PR?PELI
      C01FE0H     ReadECCReg                       LABEL ---  NCODE   ?PR?PELI
      C018E2H     ReadSJAReg                       LABEL ---  NCODE   ?PR?PELI
      C0196EH     ReadSJARegBlock                  LABEL ---  NCODE   ?PR?PELI
      00C7A6H     Read_Inputs_8_Bit                VAR   ---  NDATA0  ?ND0?OBJDICT
      C02666H     RegisterSetODentryCallBack       LABEL ---  NCODE   ?PR?OBJACCES
      C01FE8H     SJA1000_Config                   LABEL ---  NCODE   ?PR?PELI
      C01AD4H     SJAEntryPeliCANMode              LABEL ---  NCODE   ?PR?PELI
      C019DEH     SJAEntryResetMode                LABEL ---  NCODE   ?PR?PELI
      C01A1CH     SJAEntryResetMode_BCan           LABEL ---  NCODE   ?PR?PELI
      C01A58H     SJAQuitResetMode                 LABEL ---  NCODE   ?PR?PELI
      C01A96H     SJAQuitResetMode_BCan            LABEL ---  NCODE   ?PR?PELI
      C01F10H     SJARcvData                       LABEL ---  NCODE   ?PR?PELI
      C01E3CH     SJASendData                      LABEL ---  NCODE   ?PR?PELI
      C01C30H     SJASetAccCode                    LABEL ---  NCODE   ?PR?PELI
      C01CC8H     SJASetAccMask                    LABEL ---  NCODE   ?PR?PELI
      C01D62H     SJASetBandRateStandard           LABEL ---  NCODE   ?PR?PELI
      C01BC0H     SJASetClockDivision              LABEL ---  NCODE   ?PR?PELI
      C01B7CH     SJASetOutControl                 LABEL ---  NCODE   ?PR?PELI
      C01DD8H     SJASystemPrgCMD                  LABEL ---  NCODE   ?PR?PELI
      C01994H     SJATestInterface                 LABEL ---  NCODE   ?PR?PELI
      C01B66H     SJATestRstMode                   LABEL ---  NCODE   ?PR?PELI
      00C90EH     SJA_BTR_CODETAB                  VAR   ---  NDATA0  ?ND0?PELI
      C02A78H     SetAlarm                         LABEL ---  NCODE   ?PR?TIMER
      C01AFCH     SetBitMask                       LABEL ---  NCODE   ?PR?PELI
      C0374EH     SyncAlarm                        LABEL ---  NCODE   ?PR?SYNC
      00C8F2H     TFlag                            VAR   ---  NDATA0  ?ND0?GLOBAL
L166 LINKER/LOCATER V5.25                                                             09/03/2014  17:57:06  PAGE 8


      C016C8H     TPDO_Communication_Parameter_... LABEL ---  NCODE   ?PR?PDO
      C02C18H     TimeDispatch                     LABEL ---  NCODE   ?PR?TIMER
      00C8F3H     TimerMsFlag                      VAR   ---  NDATA0  ?ND0?GLOBAL
      C01902H     WriteSJAReg                      LABEL ---  NCODE   ?PR?PELI
      C01944H     WriteSJARegBlock                 LABEL ---  NCODE   ?PR?PELI
      00C78FH     Write_Outputs_8_Bit              VAR   ---  NDATA0  ?ND0?OBJDICT
      C01460H     _RxPDO_EventTimers_Handler       LABEL ---  NCODE   ?PR?PDO
      C021E2H     _getODentry                      LABEL ---  NCODE   ?PR?OBJACCES
      C0007AH     _heartbeatError                  LABEL ---  NCODE   ?PR?TEMP
      C02A5CH     _initialisation                  LABEL ---  NCODE   ?PR?STATES
      C00080H     _nodeguardError                  LABEL ---  NCODE   ?PR?TEMP
      C02A74H     _operational                     LABEL ---  NCODE   ?PR?STATES
      C0007CH     _post_SlaveBootup                LABEL ---  NCODE   ?PR?TEMP
      C0007EH     _post_SlaveStateChange           LABEL ---  NCODE   ?PR?TEMP
      C0387AH     _post_TPDO                       LABEL ---  NCODE   ?PR?SYNC
      C0302EH     _post_emcy                       LABEL ---  NCODE   ?PR?EMCY
      C03878H     _post_sync                       LABEL ---  NCODE   ?PR?SYNC
      C02A5EH     _preOperational                  LABEL ---  NCODE   ?PR?STATES
      C01462H     _sendPDOevent                    LABEL ---  NCODE   ?PR?PDO
      C023C4H     _setODentry                      LABEL ---  NCODE   ?PR?OBJACCES
      C02A76H     _stopped                         LABEL ---  NCODE   ?PR?STATES
      C026AEH     _storeODSubIndex                 LABEL ---  NCODE   ?PR?OBJACCES
      C021DAH     accessDictionaryError            LABEL ---  NCODE   ?PR?OBJACCES
      C03746H     analog_input_handler             LABEL ---  NCODE   ?PR?DS401
      C0374AH     analog_output_handler            LABEL ---  NCODE   ?PR?DS401
      C009B8H     buildPDO                         LABEL ---  NCODE   ?PR?PDO
      00C8F1H     can1_recv_flag                   VAR   ---  NDATA0  ?ND0?GLOBAL
      00C8F0H     can2_recv_flag                   VAR   ---  NDATA0  ?ND0?GLOBAL
      C026B6H     canDispatch                      LABEL ---  NCODE   ?PR?STATES
      C039ECH     canReceive                       LABEL ---  NCODE   ?PR?CAN_XC164
      C0397CH     canSend                          LABEL ---  NCODE   ?PR?CAN_XC164
      00C92CH     can_data                         VAR   ---  NDATA0  ?ND0?PELI
      00C8CAH     can_nod                          VAR   ---  NDATA0  ?ND0?GLOBAL
      00C92EH     can_select                       VAR   ---  NDATA0  ?ND0?PELI
      C03DDAH     delay                            LABEL ---  NCODE   ?PR?DELAY
      C03606H     digital_input_handler            LABEL ---  NCODE   ?PR?DS401
      C03698H     digital_output_handler           LABEL ---  NCODE   ?PR?DS401
      00C8EEH     dpram_data                       VAR   ---  NDATA0  ?ND0?GLOBAL
      C02D92H     emergencyInit                    LABEL ---  NCODE   ?PR?EMCY
      C02DB0H     emergencyStop                    LABEL ---  NCODE   ?PR?EMCY
      C03926H     getElapsedTime                   LABEL ---  NCODE   ?PR?GPT1
      C0280AH     getNodeId                        LABEL ---  NCODE   ?PR?STATES
      C026B0H     getState                         LABEL ---  NCODE   ?PR?STATES
      00C7AAH     last_timer_raw                   VAR   ---  NDATA0  ?ND0?TIMER
      C03542H     main                             LABEL ---  NCODE   ?PR?MAIN
      C00086H     masterSendNMTstateChange         LABEL ---  NCODE   ?PR?TEMP
      C0005EH     memcmp                           LABEL ---  NCODE   ?PR?MEMCMP
      C000AAH     memcpy                           LABEL ---  NCODE   ?PR?MEMCPY
      C00098H     memset                           LABEL ---  NCODE   ?PR?MEMSET
      00C8A2H     mvb_buf_si                       VAR   ---  NDATA0  ?ND0?MAIN
      00C882H     mvb_buf_si2                      VAR   ---  NDATA0  ?ND0?MAIN
      00C862H     mvb_buf_so1                      VAR   ---  NDATA0  ?ND0?MAIN
      00C842H     mvb_buf_so2                      VAR   ---  NDATA0  ?ND0?MAIN
      C03330H     mvb_init                         LABEL ---  NCODE   ?PR?MVB
      C02FF4H     proceedEMCY                      LABEL ---  NCODE   ?PR?EMCY
      C00082H     proceedNMTstateChange            LABEL ---  NCODE   ?PR?TEMP
      C00C04H     proceedPDO                       LABEL ---  NCODE   ?PR?PDO
L166 LINKER/LOCATER V5.25                                                             09/03/2014  17:57:06  PAGE 9


      C00084H     proceedSDO                       LABEL ---  NCODE   ?PR?TEMP
      C03848H     proceedSYNC                      LABEL ---  NCODE   ?PR?SYNC
      C03078H     read_8255                        LABEL ---  NCODE   ?PR?8255
      C03D62H     read_AD_ram                      LABEL ---  NCODE   ?PR?DPRAM
      C0313AH     read_Data                        LABEL ---  NCODE   ?PR?8255
      C03432H     read_sink_port                   LABEL ---  NCODE   ?PR?MVB
      00C901H     recv_buf1                        VAR   ---  NDATA0  ?ND0?GLOBAL
      00C8F4H     recv_buf2                        VAR   ---  NDATA0  ?ND0?GLOBAL
      C02652H     scanIndexOD                      LABEL ---  NCODE   ?PR?OBJACCES
      C01920H     select_chip                      LABEL ---  NCODE   ?PR?PELI
      C02DB2H     sendEMCY                         LABEL ---  NCODE   ?PR?EMCY
      C011E6H     sendOnePDOevent                  LABEL ---  NCODE   ?PR?PDO
      C011DCH     sendPDOevent                     LABEL ---  NCODE   ?PR?PDO
      C00B94H     sendPDOrequest                   LABEL ---  NCODE   ?PR?PDO
      C03832H     sendSYNC                         LABEL ---  NCODE   ?PR?SYNC
      C0380AH     sendSYNCMessage                  LABEL ---  NCODE   ?PR?SYNC
      C02810H     setNodeId                        LABEL ---  NCODE   ?PR?STATES
      C027A2H     setState                         LABEL ---  NCODE   ?PR?STATES
      C03920H     setTimer                         LABEL ---  NCODE   ?PR?GPT1
      C0375EH     startSYNC                        LABEL ---  NCODE   ?PR?SYNC
      C037DCH     stopSYNC                         LABEL ---  NCODE   ?PR?SYNC
      C02760H     switchCommunicationState         LABEL ---  NCODE   ?PR?STATES
      00C840H     tdcount                          VAR   ---  NDATA0  ?ND0?TIMER
      00C7B0H     timers                           VAR   ---  NDATA0  ?ND0?TIMER
      00C7ACH     total_sleep_time                 VAR   ---  NDATA0  ?ND0?TIMER
      C03030H     write_8255                       LABEL ---  NCODE   ?PR?8255
      C03D42H     write_AD_ram                     LABEL ---  NCODE   ?PR?DPRAM
      C030ACH     write_Data                       LABEL ---  NCODE   ?PR?8255
      C033C8H     write_source_port                LABEL ---  NCODE   ?PR?MVB



SYMBOL TABLE OF MODULE:  .\obj\EBCU_CPU (?C_STARTUP)

      VALUE       TYPE      REP       LENGTH  TGR   SYMBOL NAME
      =========================================================
      C03DF0H     PUBLIC    LABEL     ---     ---   ?C_STARTUP
      000000H     PUBLIC    CONST     ---     ---   ?L?VECSC
      00C000H     PUBLIC    VAR       ---     ---   ?C_USRSTKBOT
      00F600H     PUBLIC    VAR       ---     ---   ?C_SYSSTKBOT
      00F800H     PUBLIC    VAR       ---     ---   ?C_SYSSTKTOP
      000000H     GLOBAL    INTNO     ---     ---   RESET
      000000H     SYMBOL    RBANK     ---     ---   ?C_MAINREGISTERS
      00C200H     SYMBOL    VAR       ---     ---   ?C_USERSTKTOP
      00C220H     SYMBOL    VAR       ---     ---   ?C_USERSTKTOP1
      00C240H     SYMBOL    VAR       ---     ---   ?C_USERSTKTOP2
      00C200H     SYMBOL    VAR       ---     ---   ?C_USRSTKBOT1
      00C220H     SYMBOL    VAR       ---     ---   ?C_USRSTKBOT2
      000000H     SYMBOL    CONST     ---     ---   ADCDIS
      00EE4EH     SYMBOL    CONST     ---     ---   ADDRSEL7
      000000H     SYMBOL    CONST     ---     ---   ASC0DIS
      000001H     SYMBOL    CONST     ---     ---   ASC1DIS
      000000H     SYMBOL    CONST     ---     ---   CANDIS
      000001H     SYMBOL    CONST     ---     ---   CC1DIS
      000000H     SYMBOL    CONST     ---     ---   CC2DIS
      000001H     SYMBOL    CONST     ---     ---   CC6DIS
      00FE10H     SYMBOL    SFR       ---     ---   CP
L166 LINKER/LOCATER V5.25                                                             09/03/2014  17:57:06  PAGE 10


      00FE00H     SYMBOL    SFR       ---     ---   DPP0
      00FE02H     SYMBOL    SFR       ---     ---   DPP1
      00FE04H     SYMBOL    SFR       ---     ---   DPP2
      00FE06H     SYMBOL    SFR       ---     ---   DPP3
      00EE00H     SYMBOL    CONST     ---     ---   EBCMOD0
      00EE02H     SYMBOL    CONST     ---     ---   EBCMOD1
      00EE12H     SYMBOL    CONST     ---     ---   FCONCS0
      00EE4AH     SYMBOL    CONST     ---     ---   FCONCS7
      000000H     SYMBOL    CONST     ---     ---   FMDIS
      000000H     SYMBOL    CONST     ---     ---   GPTDIS
      000000H     SYMBOL    CONST     ---     ---   I2CDIS
      000400H     SYMBOL    CONST     ---     ---   KB
      100000H     SYMBOL    CONST     ---     ---   MB
      00F1D0H     SYMBOL    ESFR      ---     ---   PLLCON
      00FF10H     SYMBOL    SFR       ---     ---   PSW
      000000H     SYMBOL    CONST     ---     ---   RTCDIS
      000000H     SYMBOL    CONST     ---     ---   SDLMDIS
      00FE12H     SYMBOL    SFR       ---     ---   SP
      00FF0CH     SYMBOL    SFR       ---     ---   SPSEG
      000000H     SYMBOL    CONST     ---     ---   SSC0DIS
      000001H     SYMBOL    CONST     ---     ---   SSC1DIS
      000200H     SYMBOL    CONST     ---     ---   SSTSZ
      00FE14H     SYMBOL    SFR       ---     ---   STKOV
      00FE16H     SYMBOL    SFR       ---     ---   STKUN
      00F1D4H     SYMBOL    ESFR      ---     ---   SYSCON3
      00EE10H     SYMBOL    CONST     ---     ---   TCONCS0
      00EE48H     SYMBOL    CONST     ---     ---   TCONCS7
      000020H     SYMBOL    CONST     ---     ---   UST1SZ
      000020H     SYMBOL    CONST     ---     ---   UST2SZ
      000200H     SYMBOL    CONST     ---     ---   USTSZ
      000000H     SYMBOL    CONST     ---     ---   _A0PDIS
      200000H     SYMBOL    CONST     ---     ---   _ADDR7
      002000H     SYMBOL    CONST     ---     ---   _ADDRSEL7
      000001H     SYMBOL    CONST     ---     ---   _ALEDIS
      000000H     SYMBOL    CONST     ---     ---   _ALPDIS
      000000H     SYMBOL    CONST     ---     ---   _APDIS
      000000H     SYMBOL    CONST     ---     ---   _ARBEN
      00F600H     SYMBOL    VAR       ---     ---   _BOS
      000000H     SYMBOL    CONST     ---     ---   _BTYP0
      000002H     SYMBOL    CONST     ---     ---   _BTYP7
      000001H     SYMBOL    CONST     ---     ---   _BYTDIS
      000000H     SYMBOL    CONST     ---     ---   _CSPEN
      000001H     SYMBOL    CONST     ---     ---   _DHPDIS
      007004H     SYMBOL    CONST     ---     ---   _EBC0
      000040H     SYMBOL    CONST     ---     ---   _EBC1
      000000H     SYMBOL    CONST     ---     ---   _EBCDIS
      000001H     SYMBOL    CONST     ---     ---   _ENCS0
      000001H     SYMBOL    CONST     ---     ---   _ENCS7
      000001H     SYMBOL    CONST     ---     ---   _FCS0
      000027H     SYMBOL    CONST     ---     ---   _FCS7
      000000H     SYMBOL    CONST     ---     ---   _OCDS_PSTOP
      000003H     SYMBOL    CONST     ---     ---   _PHA0
      000000H     SYMBOL    CONST     ---     ---   _PHA7
      000001H     SYMBOL    CONST     ---     ---   _PHB0
      000000H     SYMBOL    CONST     ---     ---   _PHB7
      000001H     SYMBOL    CONST     ---     ---   _PHC0
      000000H     SYMBOL    CONST     ---     ---   _PHC7
L166 LINKER/LOCATER V5.25                                                             09/03/2014  17:57:06  PAGE 11


      000001H     SYMBOL    CONST     ---     ---   _PHD0
      000000H     SYMBOL    CONST     ---     ---   _PHD7
      00000EH     SYMBOL    CONST     ---     ---   _PHE0
      000000H     SYMBOL    CONST     ---     ---   _PHE7
      007814H     SYMBOL    CONST     ---     ---   _PLLCON
      000003H     SYMBOL    CONST     ---     ---   _PLLCTRL
      000001H     SYMBOL    CONST     ---     ---   _PLLIDIV
      000018H     SYMBOL    CONST     ---     ---   _PLLMUL
      000004H     SYMBOL    CONST     ---     ---   _PLLODIV
      000000H     SYMBOL    CONST     ---     ---   _PLLVB
      000000H     SYMBOL    CONST     ---     ---   _PLLWRI
      000001H     SYMBOL    CONST     ---     ---   _RDPHF0
      000000H     SYMBOL    CONST     ---     ---   _RDPHF7
      000001H     SYMBOL    CONST     ---     ---   _RDYDIS
      000000H     SYMBOL    CONST     ---     ---   _RDYEN0
      000001H     SYMBOL    CONST     ---     ---   _RDYEN7
      000000H     SYMBOL    CONST     ---     ---   _RDYMOD0
      000001H     SYMBOL    CONST     ---     ---   _RDYMOD7
      000000H     SYMBOL    CONST     ---     ---   _RDYPOL
      000004H     SYMBOL    CONST     ---     ---   _SAPEN
      001000H     SYMBOL    CONST     ---     ---   _SIZE7
      000000H     SYMBOL    CONST     ---     ---   _SLAVE
      008540H     SYMBOL    CONST     ---     ---   _SYSC3
      006BAFH     SYMBOL    CONST     ---     ---   _TCS0
      000000H     SYMBOL    CONST     ---     ---   _TCS7
      00F800H     SYMBOL    VAR       ---     ---   _TOS
      000000H     SYMBOL    CONST     ---     ---   _VECSC
      000000H     SYMBOL    CONST     ---     ---   _WRCFG
      000000H     SYMBOL    CONST     ---     ---   _WRPDIS
      000003H     SYMBOL    CONST     ---     ---   _WRPHF0
      000000H     SYMBOL    CONST     ---     ---   _WRPHF7

      C03DF0H     BLOCK     LVL=0     0170H   ---   ?C_RESET
      C03DF0H     LINE      ---       ---     ---   #1453
      C03DF4H     LINE      ---       ---     ---   #1492
      C03DF6H     LINE      ---       ---     ---   #1493
      C03DFAH     LINE      ---       ---     ---   #1500
      C03DFEH     LINE      ---       ---     ---   #1501
      C03E02H     LINE      ---       ---     ---   #1506
      C03E06H     LINE      ---       ---     ---   #1507
      C03E0AH     LINE      ---       ---     ---   #1514
      C03E0EH     LINE      ---       ---     ---   #1515
      C03E12H     LINE      ---       ---     ---   #1518
      C03E14H     LINE      ---       ---     ---   #1519
      C03E18H     LINE      ---       ---     ---   #1628
      C03E1AH     LINE      ---       ---     ---   #1629
      C03E1EH     LINE      ---       ---     ---   #1632
      C03E22H     LINE      ---       ---     ---   #1633
      C03E26H     LINE      ---       ---     ---   #1636
      C03E2AH     LINE      ---       ---     ---   #1637
      C03E2EH     LINE      ---       ---     ---   #1651
      C03E30H     LINE      ---       ---     ---   #1652
      C03E34H     LINE      ---       ---     ---   #1660
      C03E38H     LINE      ---       ---     ---   #1661
      C03E3CH     LINE      ---       ---     ---   #1662
      C03E40H     LINE      ---       ---     ---   #1663
      C03E44H     LINE      ---       ---     ---   #1672
L166 LINKER/LOCATER V5.25                                                             09/03/2014  17:57:06  PAGE 12


      C03E48H     LINE      ---       ---     ---   #1674
      C03E4CH     LINE      ---       ---     ---   #1675
      C03E50H     LINE      ---       ---     ---   #1679
      C03E54H     LINE      ---       ---     ---   #1686
      C03E58H     LINE      ---       ---     ---   #1690
      C03E5CH     LINE      ---       ---     ---   #1691
      C03E60H     LINE      ---       ---     ---   #1695
      C03E64H     LINE      ---       ---     ---   #1696
      C03E68H     LINE      ---       ---     ---   #1700
      C03E6CH     LINE      ---       ---     ---   #1703
      C03E70H     LINE      ---       ---     ---   #1755
      C03E74H     LINE      ---       ---     ---   #1756
      C03E78H     LINE      ---       ---     ---   #1757
      C03E7AH     LINE      ---       ---     ---   #1758
      C03E7CH     LINE      ---       ---     ---   #1759
      C03E7EH     LINE      ---       ---     ---   #1765
      C03E80H     LINE      ---       ---     ---   #1766
      C03E82H     LINE      ---       ---     ---   #1767
      C03E84H     LINE      ---       ---     ---   #1768
      C03E86H     LINE      ---       ---     ---   #1769
      C03E88H     LINE      ---       ---     ---   #1770
      C03E8AH     LINE      ---       ---     ---   #1771
      C03E8CH     LINE      ---       ---     ---   #1772
      C03E90H     LINE      ---       ---     ---   #1773
      C03E94H     LINE      ---       ---     ---   #1775
      C03E96H     LINE      ---       ---     ---   #1776
      C03E98H     LINE      ---       ---     ---   #1777
      C03E9AH     LINE      ---       ---     ---   #1778
      C03E9EH     LINE      ---       ---     ---   #1779
      C03EA0H     LINE      ---       ---     ---   #1780
      C03EA2H     LINE      ---       ---     ---   #1781
      C03EA4H     LINE      ---       ---     ---   #1782
      C03EA6H     LINE      ---       ---     ---   #1783
      C03EA8H     LINE      ---       ---     ---   #1784
      C03EAAH     LINE      ---       ---     ---   #1785
      C03EACH     LINE      ---       ---     ---   #1786
      C03EAEH     LINE      ---       ---     ---   #1787
      C03EB0H     LINE      ---       ---     ---   #1789
      C03EB2H     LINE      ---       ---     ---   #1790
      C03EB4H     LINE      ---       ---     ---   #1795
      C03EB6H     LINE      ---       ---     ---   #1796
      C03EB8H     LINE      ---       ---     ---   #1797
      C03EBAH     LINE      ---       ---     ---   #1798
      C03EBCH     LINE      ---       ---     ---   #1799
      C03EC0H     LINE      ---       ---     ---   #1800
      C03EC2H     LINE      ---       ---     ---   #1801
      C03EC4H     LINE      ---       ---     ---   #1802
      C03EC6H     LINE      ---       ---     ---   #1808
      C03EC8H     LINE      ---       ---     ---   #1809
      C03ECAH     LINE      ---       ---     ---   #1810
      C03ECCH     LINE      ---       ---     ---   #1811
      C03ECEH     LINE      ---       ---     ---   #1812
      C03ED0H     LINE      ---       ---     ---   #1873
      C03ED4H     LINE      ---       ---     ---   #1874
      C03ED8H     LINE      ---       ---     ---   #1880
      C03EDCH     LINE      ---       ---     ---   #1881
      C03EDEH     LINE      ---       ---     ---   #1882
L166 LINKER/LOCATER V5.25                                                             09/03/2014  17:57:06  PAGE 13


      C03EE0H     LINE      ---       ---     ---   #1883
      C03EE2H     LINE      ---       ---     ---   #1884
      C03EE4H     LINE      ---       ---     ---   #1885
      C03EE6H     LINE      ---       ---     ---   #1886
      C03EEAH     LINE      ---       ---     ---   #1887
      C03EECH     LINE      ---       ---     ---   #1888
      C03EF0H     LINE      ---       ---     ---   #1889
      C03EF2H     LINE      ---       ---     ---   #1890
      C03EF4H     LINE      ---       ---     ---   #1891
      C03EF6H     LINE      ---       ---     ---   #1892
      C03EF8H     LINE      ---       ---     ---   #1893
      C03EFAH     LINE      ---       ---     ---   #1894
      C03EFCH     LINE      ---       ---     ---   #1895
      C03EFEH     LINE      ---       ---     ---   #1896
      C03F00H     LINE      ---       ---     ---   #1897
      C03F02H     LINE      ---       ---     ---   #1898
      C03F04H     LINE      ---       ---     ---   #1899
      C03F08H     LINE      ---       ---     ---   #1900
      C03F0CH     LINE      ---       ---     ---   #1901
      C03F0EH     LINE      ---       ---     ---   #1902
      C03F10H     LINE      ---       ---     ---   #1903
      C03F12H     LINE      ---       ---     ---   #1904
      C03F14H     LINE      ---       ---     ---   #1905
      C03F16H     LINE      ---       ---     ---   #1906
      C03F18H     LINE      ---       ---     ---   #1907
      C03F1AH     LINE      ---       ---     ---   #1908
      C03F1CH     LINE      ---       ---     ---   #1909
      C03F1EH     LINE      ---       ---     ---   #1910
      C03F20H     LINE      ---       ---     ---   #1911
      C03F24H     LINE      ---       ---     ---   #1912
      C03F28H     LINE      ---       ---     ---   #1913
      C03F2CH     LINE      ---       ---     ---   #1914
      C03F30H     LINE      ---       ---     ---   #1919
      C03F32H     LINE      ---       ---     ---   #1920
      C03F34H     LINE      ---       ---     ---   #1921
      C03F38H     LINE      ---       ---     ---   #1922
      C03F3AH     LINE      ---       ---     ---   #1923
      C03F3CH     LINE      ---       ---     ---   #1924
      C03F3EH     LINE      ---       ---     ---   #1926
      C03F40H     LINE      ---       ---     ---   #1927
      C03F42H     LINE      ---       ---     ---   #1928
      C03F46H     LINE      ---       ---     ---   #1929
      C03F48H     LINE      ---       ---     ---   #1930
      C03F4AH     LINE      ---       ---     ---   #1931
      C03F4CH     LINE      ---       ---     ---   #1932
      C03F50H     LINE      ---       ---     ---   #1933
      C03F52H     LINE      ---       ---     ---   #1934
      C03F54H     LINE      ---       ---     ---   #1935
      C03F56H     LINE      ---       ---     ---   #1936
      C03F58H     LINE      ---       ---     ---   #1937
      C03F5AH     LINE      ---       ---     ---   #1938
      C03F5CH     LINE      ---       ---     ---   #2027
      C03F5CH     SYMBOL    LABEL     ---     ---   EndInit
      C03F58H     SYMBOL    LABEL     ---     ---   StoreBit
      C03F56H     SYMBOL    LABEL     ---     ---   SetBit
      C03F3EH     SYMBOL    LABEL     ---     ---   InitBit
      C03F30H     SYMBOL    LABEL     ---     ---   NoDPP3Adj
L166 LINKER/LOCATER V5.25                                                             09/03/2014  17:57:06  PAGE 14


      C03F14H     SYMBOL    LABEL     ---     ---   CopyInitVal
      C03EFCH     SYMBOL    LABEL     ---     ---   LenLoad
      C03ED8H     SYMBOL    LABEL     ---     ---   RepeatInit
      C03ED0H     SYMBOL    LABEL     ---     ---   Init_Vars
      C03ED0H     SYMBOL    LABEL     ---     ---   EndClear
      C03EC6H     SYMBOL    LABEL     ---     ---   ClearNear
      C03EB4H     SYMBOL    LABEL     ---     ---   RepClearFar
      C03EB0H     SYMBOL    LABEL     ---     ---   ClearFar
      C03E94H     SYMBOL    LABEL     ---     ---   ClearBit
      C03E7EH     SYMBOL    LABEL     ---     ---   RepeatClear
      C03E70H     SYMBOL    LABEL     ---     ---   Clr_Memory
      ---         BLOCKEND  LVL=0     ---     ---   
      C03542H     GLOBAL    LABEL     ---     ---   main
      C0349EH     PUBLIC    LABEL     ---     ---   MAIN_vInit
      C034BAH     PUBLIC    LABEL     ---     ---   MAIN_vUnlockProtecReg
      C040D8H     SYMBOL    VAR       ---     ---   ?tpl?0003
      C040E4H     SYMBOL    VAR       ---     ---   ?tpl?0002
      C040F0H     SYMBOL    VAR       ---     ---   ?tpl?0001
      C040FCH     SYMBOL    VAR       ---     ---   ?tpl?0004
      00C842H     PUBLIC    VAR       ---     ---   mvb_buf_so2
      00C862H     PUBLIC    VAR       ---     ---   mvb_buf_so1
      00C882H     PUBLIC    VAR       ---     ---   mvb_buf_si2
      00C8A2H     PUBLIC    VAR       ---     ---   mvb_buf_si

      C0349EH     BLOCK     LVL=0     001CH   ---   MAIN_vInit
      C0349EH     LINE      ---       ---     ---   #124
      C0349EH     LINE      ---       ---     ---   #138
      C034A0H     LINE      ---       ---     ---   #139
      C034A6H     LINE      ---       ---     ---   #256
      C034AAH     LINE      ---       ---     ---   #259
      C034AEH     LINE      ---       ---     ---   #262
      C034B2H     LINE      ---       ---     ---   #265
      C034B6H     LINE      ---       ---     ---   #272
      C034B8H     LINE      ---       ---     ---   #274
      ---         BLOCKEND  LVL=0     ---     ---   

      C034BAH     BLOCK     LVL=0     0088H   ---   MAIN_vUnlockProtecReg
      C034BAH     BLOCK     LVL=1     0086H   ---   
      000005H     SYMBOL    REG       ---     ---   uwPASSWORD
      ---         BLOCKEND  LVL=1     ---     ---   
      C034BAH     LINE      ---       ---     ---   #301
      C034BAH     LINE      ---       ---     ---   #302
      C034BAH     LINE      ---       ---     ---   #305
      C034C8H     LINE      ---       ---     ---   #308
      C034D2H     LINE      ---       ---     ---   #309
      C034DCH     LINE      ---       ---     ---   #310
      C034E6H     LINE      ---       ---     ---   #312
      C034E6H     LINE      ---       ---     ---   #314
      C034F4H     LINE      ---       ---     ---   #316
      C034FAH     LINE      ---       ---     ---   #317
      C034FEH     LINE      ---       ---     ---   #319
      C03508H     LINE      ---       ---     ---   #320
      C03512H     LINE      ---       ---     ---   #322
      C0351CH     LINE      ---       ---     ---   #323
      C03522H     LINE      ---       ---     ---   #325
      C0352CH     LINE      ---       ---     ---   #326
      C03536H     LINE      ---       ---     ---   #327
L166 LINKER/LOCATER V5.25                                                             09/03/2014  17:57:06  PAGE 15


      C03540H     LINE      ---       ---     ---   #329
      ---         BLOCKEND  LVL=0     ---     ---   

      C03542H     BLOCK     LVL=0     00C4H   ---   main
      C03546H     BLOCK     LVL=1     00C0H   ---   
      000000H     SYMBOL    AUTO      ---     ---   Chip1_cfg
      00000CH     SYMBOL    AUTO      ---     ---   Sendm
      000018H     SYMBOL    AUTO      ---     ---   Rcvm
      00004DH     SYMBOL    REG       ---     ---   i
      000024H     SYMBOL    AUTO      ---     ---   digital_input
      ---         BLOCKEND  LVL=1     ---     ---   
      C03542H     LINE      ---       ---     ---   #355
      C03546H     LINE      ---       ---     ---   #356
      C03546H     LINE      ---       ---     ---   #358
      C03556H     LINE      ---       ---     ---   #359
      C03568H     LINE      ---       ---     ---   #360
      C0357CH     LINE      ---       ---     ---   #361
      C0357EH     LINE      ---       ---     ---   #362
      C03592H     LINE      ---       ---     ---   #365
      C03594H     LINE      ---       ---     ---   #369
      C035ACH     LINE      ---       ---     ---   #373
      C035ACH     LINE      ---       ---     ---   #375
      C035B2H     LINE      ---       ---     ---   #377
      C035B6H     LINE      ---       ---     ---   #378
      C035B8H     LINE      ---       ---     ---   #386
      C035C6H     LINE      ---       ---     ---   #387
      C035C6H     LINE      ---       ---     ---   #388
      C035CCH     LINE      ---       ---     ---   #390
      C035D0H     LINE      ---       ---     ---   #391
      C035E0H     LINE      ---       ---     ---   #393
      C035F4H     LINE      ---       ---     ---   #394
      C035FAH     LINE      ---       ---     ---   #395
      C03604H     LINE      ---       ---     ---   #396
      C03604H     LINE      ---       ---     ---   #399
      ---         BLOCKEND  LVL=0     ---     ---   
      C03920H     PUBLIC    LABEL     ---     ---   setTimer
      C038E6H     PUBLIC    LABEL     ---     ---   GPT1_viTmr4
      C038A8H     PUBLIC    LABEL     ---     ---   GPT1_viTmr3
      C038C2H     PUBLIC    LABEL     ---     ---   GPT1_viTmr2
      C03926H     PUBLIC    LABEL     ---     ---   getElapsedTime
      C0387CH     PUBLIC    LABEL     ---     ---   GPT1_vInit
      00C930H     SYMBOL    VAR       ---     ---   last_time_set

      C0387CH     BLOCK     LVL=0     002CH   ---   GPT1_vInit
      C0387CH     LINE      ---       ---     ---   #125
      C0387CH     LINE      ---       ---     ---   #147
      C03880H     LINE      ---       ---     ---   #148
      C03884H     LINE      ---       ---     ---   #158
      C03888H     LINE      ---       ---     ---   #159
      C0388CH     LINE      ---       ---     ---   #169
      C03890H     LINE      ---       ---     ---   #170
      C03894H     LINE      ---       ---     ---   #185
      C03898H     LINE      ---       ---     ---   #192
      C0389CH     LINE      ---       ---     ---   #199
      C038A0H     LINE      ---       ---     ---   #206
      C038A2H     LINE      ---       ---     ---   #208
      C038A4H     LINE      ---       ---     ---   #210
L166 LINKER/LOCATER V5.25                                                             09/03/2014  17:57:06  PAGE 16


      C038A6H     LINE      ---       ---     ---   #212
      ---         BLOCKEND  LVL=0     ---     ---   

      C038A8H     BLOCK     LVL=0     001AH   ---   GPT1_viTmr3
      C038A8H     LINE      ---       ---     ---   #243
      C038B8H     LINE      ---       ---     ---   #251
      C038BCH     LINE      ---       ---     ---   #256
      ---         BLOCKEND  LVL=0     ---     ---   

      C038C2H     BLOCK     LVL=0     0024H   ---   GPT1_viTmr2
      C038C2H     LINE      ---       ---     ---   #288
      C038D2H     LINE      ---       ---     ---   #296
      C038D6H     LINE      ---       ---     ---   #298
      C038DAH     LINE      ---       ---     ---   #299
      C038E0H     LINE      ---       ---     ---   #302
      ---         BLOCKEND  LVL=0     ---     ---   

      C038E6H     BLOCK     LVL=0     003AH   ---   GPT1_viTmr4
      C038E6H     LINE      ---       ---     ---   #334
      C03900H     LINE      ---       ---     ---   #342
      C0390EH     LINE      ---       ---     ---   #343
      C03912H     LINE      ---       ---     ---   #347
      ---         BLOCKEND  LVL=0     ---     ---   

      C03920H     BLOCK     LVL=0     0006H   ---   setTimer
      000008H     SYMBOL    REG       ---     ---   value
      C03920H     LINE      ---       ---     ---   #354
      C03920H     LINE      ---       ---     ---   #363
      C03924H     LINE      ---       ---     ---   #364
      ---         BLOCKEND  LVL=0     ---     ---   

      C03926H     BLOCK     LVL=0     0056H   ---   getElapsedTime
      C03926H     BLOCK     LVL=1     0054H   ---   
      000008H     SYMBOL    REG       ---     ---   timer
      ---         BLOCKEND  LVL=1     ---     ---   
      C03926H     LINE      ---       ---     ---   #366
      C03926H     LINE      ---       ---     ---   #372
      C03926H     LINE      ---       ---     ---   #375
      C0392AH     LINE      ---       ---     ---   #376
      C0393CH     LINE      ---       ---     ---   #377
      C0394EH     LINE      ---       ---     ---   #378
      C0395CH     LINE      ---       ---     ---   #379
      C03974H     LINE      ---       ---     ---   #381
      C0397AH     LINE      ---       ---     ---   #382
      ---         BLOCKEND  LVL=0     ---     ---   
      C03C9CH     PUBLIC    LABEL     ---     ---   IO_vInit

      C03C9CH     BLOCK     LVL=0     00A6H   ---   IO_vInit
      C03C9CH     LINE      ---       ---     ---   #122
      C03C9CH     LINE      ---       ---     ---   #131
      C03CA2H     LINE      ---       ---     ---   #147
      C03CA6H     LINE      ---       ---     ---   #148
      C03CACH     LINE      ---       ---     ---   #149
      C03CB0H     LINE      ---       ---     ---   #169
      C03CB4H     LINE      ---       ---     ---   #170
      C03CBAH     LINE      ---       ---     ---   #171
      C03CBEH     LINE      ---       ---     ---   #191
L166 LINKER/LOCATER V5.25                                                             09/03/2014  17:57:06  PAGE 17


      C03CC2H     LINE      ---       ---     ---   #192
      C03CC8H     LINE      ---       ---     ---   #194
      C03CCCH     LINE      ---       ---     ---   #195
      C03CD0H     LINE      ---       ---     ---   #216
      C03CD4H     LINE      ---       ---     ---   #217
      C03CDAH     LINE      ---       ---     ---   #219
      C03CDEH     LINE      ---       ---     ---   #220
      C03CE2H     LINE      ---       ---     ---   #227
      C03CE6H     LINE      ---       ---     ---   #228
      C03CEAH     LINE      ---       ---     ---   #229
      C03CF0H     LINE      ---       ---     ---   #231
      C03CF4H     LINE      ---       ---     ---   #233
      C03CF8H     LINE      ---       ---     ---   #234
      C03CFCH     LINE      ---       ---     ---   #256
      C03D02H     LINE      ---       ---     ---   #257
      C03D06H     LINE      ---       ---     ---   #258
      C03D0CH     LINE      ---       ---     ---   #260
      C03D10H     LINE      ---       ---     ---   #262
      C03D14H     LINE      ---       ---     ---   #263
      C03D18H     LINE      ---       ---     ---   #289
      C03D1CH     LINE      ---       ---     ---   #290
      C03D20H     LINE      ---       ---     ---   #291
      C03D26H     LINE      ---       ---     ---   #293
      C03D2AH     LINE      ---       ---     ---   #295
      C03D2EH     LINE      ---       ---     ---   #296
      C03D32H     LINE      ---       ---     ---   #315
      C03D36H     LINE      ---       ---     ---   #316
      C03D3CH     LINE      ---       ---     ---   #317
      C03D40H     LINE      ---       ---     ---   #324
      ---         BLOCKEND  LVL=0     ---     ---   
      C03B20H     PUBLIC    LABEL     ---     ---   CC2_viCC17
      C03B04H     PUBLIC    LABEL     ---     ---   CC2_viCC16
      C03A7CH     PUBLIC    LABEL     ---     ---   CC2_vInit

      C03A7CH     BLOCK     LVL=0     0088H   ---   CC2_vInit
      C03A7CH     LINE      ---       ---     ---   #122
      C03A7CH     LINE      ---       ---     ---   #134
      C03A82H     LINE      ---       ---     ---   #151
      C03A86H     LINE      ---       ---     ---   #154
      C03A8CH     LINE      ---       ---     ---   #156
      C03A90H     LINE      ---       ---     ---   #158
      C03A94H     LINE      ---       ---     ---   #160
      C03A98H     LINE      ---       ---     ---   #181
      C03A9CH     LINE      ---       ---     ---   #192
      C03AA0H     LINE      ---       ---     ---   #199
      C03AA4H     LINE      ---       ---     ---   #206
      C03AA8H     LINE      ---       ---     ---   #213
      C03AACH     LINE      ---       ---     ---   #220
      C03AB0H     LINE      ---       ---     ---   #227
      C03AB4H     LINE      ---       ---     ---   #234
      C03AB8H     LINE      ---       ---     ---   #241
      C03ABCH     LINE      ---       ---     ---   #248
      C03AC0H     LINE      ---       ---     ---   #255
      C03AC4H     LINE      ---       ---     ---   #262
      C03AC8H     LINE      ---       ---     ---   #269
      C03ACCH     LINE      ---       ---     ---   #276
      C03AD0H     LINE      ---       ---     ---   #283
L166 LINKER/LOCATER V5.25                                                             09/03/2014  17:57:06  PAGE 18


      C03AD4H     LINE      ---       ---     ---   #290
      C03AD8H     LINE      ---       ---     ---   #292
      C03ADCH     LINE      ---       ---     ---   #293
      C03AE0H     LINE      ---       ---     ---   #294
      C03AE4H     LINE      ---       ---     ---   #295
      C03AE8H     LINE      ---       ---     ---   #297
      C03AECH     LINE      ---       ---     ---   #299
      C03AF0H     LINE      ---       ---     ---   #301
      C03AF4H     LINE      ---       ---     ---   #303
      C03AF8H     LINE      ---       ---     ---   #320
      C03AFEH     LINE      ---       ---     ---   #328
      C03B02H     LINE      ---       ---     ---   #336
      ---         BLOCKEND  LVL=0     ---     ---   

      C03B04H     BLOCK     LVL=0     001CH   ---   CC2_viCC16
      C03B04H     LINE      ---       ---     ---   #367
      C03B14H     LINE      ---       ---     ---   #370
      C03B1AH     LINE      ---       ---     ---   #373
      ---         BLOCKEND  LVL=0     ---     ---   

      C03B20H     BLOCK     LVL=0     001CH   ---   CC2_viCC17
      C03B20H     LINE      ---       ---     ---   #404
      C03B30H     LINE      ---       ---     ---   #407
      C03B36H     LINE      ---       ---     ---   #410
      ---         BLOCKEND  LVL=0     ---     ---   
      C0003EH     PUBLIC    LABEL     ---     ---   GPT2_viTmr5
      C0001EH     PUBLIC    LABEL     ---     ---   GPT2_vInit

      C0001EH     BLOCK     LVL=0     0020H   ---   GPT2_vInit
      C0001EH     LINE      ---       ---     ---   #122
      C0001EH     LINE      ---       ---     ---   #143
      C00022H     LINE      ---       ---     ---   #144
      C00026H     LINE      ---       ---     ---   #158
      C0002AH     LINE      ---       ---     ---   #159
      C0002EH     LINE      ---       ---     ---   #170
      C00032H     LINE      ---       ---     ---   #171
      C00036H     LINE      ---       ---     ---   #186
      C0003AH     LINE      ---       ---     ---   #193
      C0003CH     LINE      ---       ---     ---   #195
      ---         BLOCKEND  LVL=0     ---     ---   

      C0003EH     BLOCK     LVL=0     0020H   ---   GPT2_viTmr5
      C0003EH     LINE      ---       ---     ---   #223
      C0004EH     LINE      ---       ---     ---   #226
      C00052H     LINE      ---       ---     ---   #227
      C00058H     LINE      ---       ---     ---   #231
      ---         BLOCKEND  LVL=0     ---     ---   
      00C8C2H     PUBLIC    VAR       ---     ---   DIO
      00C8CAH     PUBLIC    VAR       ---     ---   can_nod
      00C8CCH     PUBLIC    VAR       ---     ---   ADIO
      00C8ECH     PUBLIC    VAR       ---     ---   DIO_ALL
      00C8EEH     PUBLIC    VAR       ---     ---   dpram_data
      00C8F0H     PUBLIC    VAR       ---     ---   can2_recv_flag
      00C8F1H     PUBLIC    VAR       ---     ---   can1_recv_flag
      00C8F2H     PUBLIC    VAR       ---     ---   TFlag
      00C8F3H     PUBLIC    VAR       ---     ---   TimerMsFlag
      00C8F4H     PUBLIC    VAR       ---     ---   recv_buf2
L166 LINKER/LOCATER V5.25                                                             09/03/2014  17:57:06  PAGE 19


      00C901H     PUBLIC    VAR       ---     ---   recv_buf1
      C0313AH     PUBLIC    LABEL     ---     ---   read_Data
      C03030H     PUBLIC    LABEL     ---     ---   write_8255
      C03078H     PUBLIC    LABEL     ---     ---   read_8255
      C030ACH     PUBLIC    LABEL     ---     ---   write_Data
      C04118H     SYMBOL    VAR       ---     ---   ?tpl?0002
      C04120H     SYMBOL    VAR       ---     ---   ?tpl?0001

      C03030H     BLOCK     LVL=0     0048H   ---   write_8255
      000048H     SYMBOL    REG       ---     ---   portID
      000049H     SYMBOL    REG       ---     ---   Wdata_8255
      C03030H     LINE      ---       ---     ---   #13
      C03030H     LINE      ---       ---     ---   #16
      C03048H     LINE      ---       ---     ---   #18
      C03048H     LINE      ---       ---     ---   #19
      C03054H     LINE      ---       ---     ---   #20
      C03054H     LINE      ---       ---     ---   #21
      C03060H     LINE      ---       ---     ---   #22
      C03060H     LINE      ---       ---     ---   #23
      C0306CH     LINE      ---       ---     ---   #24
      C0306CH     LINE      ---       ---     ---   #25
      C03076H     LINE      ---       ---     ---   #26
      C03076H     LINE      ---       ---     ---   #28
      ---         BLOCKEND  LVL=0     ---     ---   

      C03078H     BLOCK     LVL=0     0034H   ---   read_8255
      000048H     SYMBOL    REG       ---     ---   portID
      C03078H     BLOCK     LVL=1     0032H   ---   
      00008AH     SYMBOL    REG       ---     ---   Rdata_8255
      ---         BLOCKEND  LVL=1     ---     ---   
      C03078H     LINE      ---       ---     ---   #30
      C03078H     LINE      ---       ---     ---   #31
      C03078H     LINE      ---       ---     ---   #35
      C03088H     LINE      ---       ---     ---   #37
      C03088H     LINE      ---       ---     ---   #38
      C03092H     LINE      ---       ---     ---   #39
      C03092H     LINE      ---       ---     ---   #40
      C0309CH     LINE      ---       ---     ---   #41
      C0309CH     LINE      ---       ---     ---   #42
      C030A6H     LINE      ---       ---     ---   #43
      C030A6H     LINE      ---       ---     ---   #44
      C030A8H     LINE      ---       ---     ---   #45
      C030A8H     LINE      ---       ---     ---   #47
      C030AAH     LINE      ---       ---     ---   #49
      ---         BLOCKEND  LVL=0     ---     ---   

      C030ACH     BLOCK     LVL=0     008EH   ---   write_Data
      00004FH     SYMBOL    REG       ---     ---   BoardID
      00004EH     SYMBOL    REG       ---     ---   ByteID
      00004DH     SYMBOL    REG       ---     ---   Wdata
      C030BCH     BLOCK     LVL=1     0072H   ---   
      000000H     SYMBOL    AUTO      ---     ---   ByteData
      ---         BLOCKEND  LVL=1     ---     ---   
      C030ACH     LINE      ---       ---     ---   #56
      C030BCH     LINE      ---       ---     ---   #57
      C030BCH     LINE      ---       ---     ---   #58
      C030CCH     LINE      ---       ---     ---   #59
L166 LINKER/LOCATER V5.25                                                             09/03/2014  17:57:06  PAGE 20


      C030D6H     LINE      ---       ---     ---   #60
      C030E0H     LINE      ---       ---     ---   #61
      C030E6H     LINE      ---       ---     ---   #62
      C030EEH     LINE      ---       ---     ---   #64
      C030F8H     LINE      ---       ---     ---   #66
      C03102H     LINE      ---       ---     ---   #67
      C03116H     LINE      ---       ---     ---   #69
      C0311CH     LINE      ---       ---     ---   #70
      C03126H     LINE      ---       ---     ---   #71
      C0312EH     LINE      ---       ---     ---   #72
      ---         BLOCKEND  LVL=0     ---     ---   

      C0313AH     BLOCK     LVL=0     0086H   ---   read_Data
      000084H     SYMBOL    REG       ---     ---   BoardID
      000082H     SYMBOL    REG       ---     ---   ByteID
      C03142H     BLOCK     LVL=1     0078H   ---   
      00004AH     SYMBOL    REG       ---     ---   rData
      000000H     SYMBOL    AUTO      ---     ---   ByteData
      ---         BLOCKEND  LVL=1     ---     ---   
      C0313AH     LINE      ---       ---     ---   #75
      C03142H     LINE      ---       ---     ---   #76
      C03142H     LINE      ---       ---     ---   #77
      C03144H     LINE      ---       ---     ---   #78
      C03154H     LINE      ---       ---     ---   #79
      C03160H     LINE      ---       ---     ---   #80
      C0316CH     LINE      ---       ---     ---   #81
      C03180H     LINE      ---       ---     ---   #83
      C0318AH     LINE      ---       ---     ---   #85
      C03196H     LINE      ---       ---     ---   #86
      C031A2H     LINE      ---       ---     ---   #87
      C031AEH     LINE      ---       ---     ---   #88
      C031B8H     LINE      ---       ---     ---   #89
      C031BAH     LINE      ---       ---     ---   #90
      ---         BLOCKEND  LVL=0     ---     ---   
      C03DC2H     PUBLIC    LABEL     ---     ---   DelayMs
      C03DDAH     PUBLIC    LABEL     ---     ---   delay

      C03DC2H     BLOCK     LVL=0     0018H   ---   DelayMs
      000008H     SYMBOL    REG       ---     ---   Num
      C03DC2H     BLOCK     LVL=1     0016H   ---   
      000005H     SYMBOL    REG       ---     ---   i
      ---         BLOCKEND  LVL=1     ---     ---   
      C03DC2H     LINE      ---       ---     ---   #9
      C03DC2H     LINE      ---       ---     ---   #10
      C03DC4H     LINE      ---       ---     ---   #12
      C03DC6H     LINE      ---       ---     ---   #13
      C03DCAH     LINE      ---       ---     ---   #14
      C03DCCH     LINE      ---       ---     ---   #15
      C03DD2H     LINE      ---       ---     ---   #16
      C03DD8H     LINE      ---       ---     ---   #17
      ---         BLOCKEND  LVL=0     ---     ---   

      C03DDAH     BLOCK     LVL=0     0016H   ---   delay
      000048H     SYMBOL    REG       ---     ---   n
      C03DDAH     BLOCK     LVL=1     0014H   ---   
      000006H     SYMBOL    REG       ---     ---   i
      000005H     SYMBOL    REG       ---     ---   j
L166 LINKER/LOCATER V5.25                                                             09/03/2014  17:57:06  PAGE 21


      ---         BLOCKEND  LVL=1     ---     ---   
      C03DDAH     LINE      ---       ---     ---   #19
      C03DDAH     LINE      ---       ---     ---   #20
      C03DDAH     LINE      ---       ---     ---   #23
      C03DDEH     LINE      ---       ---     ---   #25
      C03DE4H     LINE      ---       ---     ---   #26
      C03DEEH     LINE      ---       ---     ---   #27
      ---         BLOCKEND  LVL=0     ---     ---   
      C03D42H     PUBLIC    LABEL     ---     ---   write_AD_ram
      C03D62H     PUBLIC    LABEL     ---     ---   read_AD_ram

      C03D42H     BLOCK     LVL=0     0020H   ---   write_AD_ram
      000008H     SYMBOL    REG       ---     ---   adram
      C03D42H     BLOCK     LVL=1     001EH   ---   
      000006H     SYMBOL    REG       ---     ---   i
      ---         BLOCKEND  LVL=1     ---     ---   
      C03D42H     LINE      ---       ---     ---   #9
      C03D42H     LINE      ---       ---     ---   #10
      C03D42H     LINE      ---       ---     ---   #11
      C03D44H     LINE      ---       ---     ---   #12
      C03D44H     LINE      ---       ---     ---   #14
      C03D4CH     LINE      ---       ---     ---   #15
      C03D5CH     LINE      ---       ---     ---   #16
      C03D60H     LINE      ---       ---     ---   #17
      ---         BLOCKEND  LVL=0     ---     ---   

      C03D62H     BLOCK     LVL=0     0060H   ---   read_AD_ram
      000008H     SYMBOL    REG       ---     ---   adram
      C03D62H     BLOCK     LVL=1     005EH   ---   
      000005H     SYMBOL    REG       ---     ---   i
      ---         BLOCKEND  LVL=1     ---     ---   
      C03D62H     LINE      ---       ---     ---   #19
      C03D62H     LINE      ---       ---     ---   #20
      C03D62H     LINE      ---       ---     ---   #21
      C03D64H     LINE      ---       ---     ---   #22
      C03D66H     LINE      ---       ---     ---   #24
      C03D6EH     LINE      ---       ---     ---   #25
      C03D80H     LINE      ---       ---     ---   #26
      C03D88H     LINE      ---       ---     ---   #27
      C03D8CH     LINE      ---       ---     ---   #29
      C03D94H     LINE      ---       ---     ---   #30
      C03DA6H     LINE      ---       ---     ---   #31
      C03DACH     LINE      ---       ---     ---   #32
      C03DB4H     LINE      ---       ---     ---   #33
      C03DC0H     LINE      ---       ---     ---   #35
      ---         BLOCKEND  LVL=0     ---     ---   
      C03B82H     PUBLIC    LABEL     ---     ---   DIN
      C03BB0H     PUBLIC    LABEL     ---     ---   DERROR
      C03B3CH     PUBLIC    LABEL     ---     ---   DOUT

      C03B3CH     BLOCK     LVL=0     0046H   ---   DOUT
      00000DH     SYMBOL    REG       ---     ---   dio_data
      C03B3CH     LINE      ---       ---     ---   #8
      C03B40H     LINE      ---       ---     ---   #10
      C03B4EH     LINE      ---       ---     ---   #11
      C03B54H     LINE      ---       ---     ---   #12
      C03B62H     LINE      ---       ---     ---   #13
L166 LINKER/LOCATER V5.25                                                             09/03/2014  17:57:06  PAGE 22


      C03B68H     LINE      ---       ---     ---   #14
      C03B78H     LINE      ---       ---     ---   #15
      C03B7EH     LINE      ---       ---     ---   #16
      ---         BLOCKEND  LVL=0     ---     ---   

      C03B82H     BLOCK     LVL=0     002EH   ---   DIN
      00000DH     SYMBOL    REG       ---     ---   dio_data
      C03B82H     LINE      ---       ---     ---   #18
      C03B86H     LINE      ---       ---     ---   #20
      C03B94H     LINE      ---       ---     ---   #21
      C03B9AH     LINE      ---       ---     ---   #22
      C03BA6H     LINE      ---       ---     ---   #23
      C03BACH     LINE      ---       ---     ---   #24
      ---         BLOCKEND  LVL=0     ---     ---   

      C03BB0H     BLOCK     LVL=0     0042H   ---   DERROR
      00000DH     SYMBOL    REG       ---     ---   dio_data
      C03BB0H     LINE      ---       ---     ---   #26
      C03BB4H     LINE      ---       ---     ---   #28
      C03BC2H     LINE      ---       ---     ---   #29
      C03BC8H     LINE      ---       ---     ---   #30
      C03BD4H     LINE      ---       ---     ---   #31
      C03BDAH     LINE      ---       ---     ---   #32
      C03BE8H     LINE      ---       ---     ---   #33
      C03BEEH     LINE      ---       ---     ---   #34
      ---         BLOCKEND  LVL=0     ---     ---   
      C03432H     PUBLIC    LABEL     ---     ---   read_sink_port
      C03330H     PUBLIC    LABEL     ---     ---   mvb_init
      C033C8H     PUBLIC    LABEL     ---     ---   write_source_port

      C03330H     BLOCK     LVL=0     0098H   ---   mvb_init
      00000FH     SYMBOL    REG       ---     ---   source1
      00000EH     SYMBOL    REG       ---     ---   source2
      00000DH     SYMBOL    REG       ---     ---   sink1
      000002H     SYMBOL    AUTO      ---     ---   sink2
      C03340H     BLOCK     LVL=1     007EH   ---   
      000000H     SYMBOL    AUTO      ---     ---   i
      ---         BLOCKEND  LVL=1     ---     ---   
      C03330H     LINE      ---       ---     ---   #3
      C03340H     LINE      ---       ---     ---   #4
      C03340H     LINE      ---       ---     ---   #6
      C03344H     LINE      ---       ---     ---   #8
      C03350H     LINE      ---       ---     ---   #9
      C03356H     LINE      ---       ---     ---   #10
      C03364H     LINE      ---       ---     ---   #11
      C0336EH     LINE      ---       ---     ---   #12
      C03378H     LINE      ---       ---     ---   #13
      C03382H     LINE      ---       ---     ---   #15
      C0338CH     LINE      ---       ---     ---   #16
      C03396H     LINE      ---       ---     ---   #18
      C033A0H     LINE      ---       ---     ---   #19
      C033AEH     LINE      ---       ---     ---   #21
      C033BAH     LINE      ---       ---     ---   #22
      C033BEH     LINE      ---       ---     ---   #25
      ---         BLOCKEND  LVL=0     ---     ---   

      C033C8H     BLOCK     LVL=0     006AH   ---   write_source_port
L166 LINKER/LOCATER V5.25                                                             09/03/2014  17:57:06  PAGE 23


      00004EH     SYMBOL    REG       ---     ---   port_num
      00000DH     SYMBOL    REG       ---     ---   src_buffer
      C033D2H     BLOCK     LVL=1     0058H   ---   
      00004FH     SYMBOL    REG       ---     ---   i
      ---         BLOCKEND  LVL=1     ---     ---   
      C033C8H     LINE      ---       ---     ---   #27
      C033D2H     LINE      ---       ---     ---   #28
      C033D2H     LINE      ---       ---     ---   #29
      C033D4H     LINE      ---       ---     ---   #30
      C033DAH     LINE      ---       ---     ---   #32
      C033DCH     LINE      ---       ---     ---   #34
      C033EEH     LINE      ---       ---     ---   #35
      C033F4H     LINE      ---       ---     ---   #36
      C033FEH     LINE      ---       ---     ---   #37
      C03400H     LINE      ---       ---     ---   #38
      C03406H     LINE      ---       ---     ---   #40
      C03408H     LINE      ---       ---     ---   #42
      C0341AH     LINE      ---       ---     ---   #43
      C03420H     LINE      ---       ---     ---   #44
      C0342AH     LINE      ---       ---     ---   #45
      ---         BLOCKEND  LVL=0     ---     ---   

      C03432H     BLOCK     LVL=0     006CH   ---   read_sink_port
      00004EH     SYMBOL    REG       ---     ---   port_num
      00000DH     SYMBOL    REG       ---     ---   dst_buffer
      C0343CH     BLOCK     LVL=1     005AH   ---   
      00004FH     SYMBOL    REG       ---     ---   i
      ---         BLOCKEND  LVL=1     ---     ---   
      C03432H     LINE      ---       ---     ---   #49
      C0343CH     LINE      ---       ---     ---   #50
      C0343CH     LINE      ---       ---     ---   #51
      C0343EH     LINE      ---       ---     ---   #52
      C03444H     LINE      ---       ---     ---   #54
      C03446H     LINE      ---       ---     ---   #56
      C0345AH     LINE      ---       ---     ---   #57
      C03460H     LINE      ---       ---     ---   #58
      C0346AH     LINE      ---       ---     ---   #59
      C0346CH     LINE      ---       ---     ---   #60
      C03472H     LINE      ---       ---     ---   #61
      C03474H     LINE      ---       ---     ---   #63
      C03486H     LINE      ---       ---     ---   #64
      C0348CH     LINE      ---       ---     ---   #65
      ---         BLOCKEND  LVL=0     ---     ---   
      C039ECH     PUBLIC    LABEL     ---     ---   canReceive
      C0397CH     PUBLIC    LABEL     ---     ---   canSend
      C040FDH     SYMBOL    VAR       ---     ---   ?tpl?0002
      C0410AH     SYMBOL    VAR       ---     ---   ?tpl?0001

      C0397CH     BLOCK     LVL=0     0070H   ---   canSend
      000048H     SYMBOL    REG       ---     ---   port
      000009H     SYMBOL    REG       ---     ---   m
      C03980H     BLOCK     LVL=1     0066H   ---   
      000000H     SYMBOL    AUTO      ---     ---   databuf
      00008EH     SYMBOL    REG       ---     ---   i
      000088H     SYMBOL    REG       ---     ---   state
      ---         BLOCKEND  LVL=1     ---     ---   
      C0397CH     LINE      ---       ---     ---   #23
L166 LINKER/LOCATER V5.25                                                             09/03/2014  17:57:06  PAGE 24


      C03980H     LINE      ---       ---     ---   #24
      C03980H     LINE      ---       ---     ---   #25
      C03990H     LINE      ---       ---     ---   #28
      C03994H     LINE      ---       ---     ---   #29
      C0399AH     LINE      ---       ---     ---   #30
      C039A0H     LINE      ---       ---     ---   #31
      C039ACH     LINE      ---       ---     ---   #33
      C039B6H     LINE      ---       ---     ---   #34
      C039BEH     LINE      ---       ---     ---   #36
      C039C0H     LINE      ---       ---     ---   #38
      C039D2H     LINE      ---       ---     ---   #39
      C039DAH     LINE      ---       ---     ---   #41
      C039E6H     LINE      ---       ---     ---   #43
      C039E6H     LINE      ---       ---     ---   #44
      ---         BLOCKEND  LVL=0     ---     ---   

      C039ECH     BLOCK     LVL=0     0090H   ---   canReceive
      000048H     SYMBOL    REG       ---     ---   port
      00000DH     SYMBOL    REG       ---     ---   m
      C039F4H     BLOCK     LVL=1     0080H   ---   
      000000H     SYMBOL    AUTO      ---     ---   databuf
      00008AH     SYMBOL    REG       ---     ---   i
      00008EH     SYMBOL    REG       ---     ---   state
      ---         BLOCKEND  LVL=1     ---     ---   
      C039ECH     LINE      ---       ---     ---   #46
      C039F4H     LINE      ---       ---     ---   #47
      C039F4H     LINE      ---       ---     ---   #48
      C03A04H     LINE      ---       ---     ---   #51
      C03A10H     LINE      ---       ---     ---   #53
      C03A14H     LINE      ---       ---     ---   #54
      C03A18H     LINE      ---       ---     ---   #56
      C03A22H     LINE      ---       ---     ---   #58
      C03A28H     LINE      ---       ---     ---   #59
      C03A30H     LINE      ---       ---     ---   #61
      C03A36H     LINE      ---       ---     ---   #63
      C03A38H     LINE      ---       ---     ---   #65
      C03A4AH     LINE      ---       ---     ---   #66
      C03A52H     LINE      ---       ---     ---   #67
      C03A5AH     LINE      ---       ---     ---   #68
      C03A60H     LINE      ---       ---     ---   #69
      C03A72H     LINE      ---       ---     ---   #71
      C03A74H     LINE      ---       ---     ---   #72
      ---         BLOCKEND  LVL=0     ---     ---   
      C018E2H     PUBLIC    LABEL     ---     ---   ReadSJAReg
      C01944H     PUBLIC    LABEL     ---     ---   WriteSJARegBlock
      C01FD8H     PUBLIC    LABEL     ---     ---   ReadALCReg
      C0196EH     PUBLIC    LABEL     ---     ---   ReadSJARegBlock
      C01FE0H     PUBLIC    LABEL     ---     ---   ReadECCReg
      C01DD8H     PUBLIC    LABEL     ---     ---   SJASystemPrgCMD
      C01E3CH     PUBLIC    LABEL     ---     ---   SJASendData
      C01AFCH     PUBLIC    LABEL     ---     ---   SetBitMask
      C01AD4H     PUBLIC    LABEL     ---     ---   SJAEntryPeliCANMode
      C01FE8H     PUBLIC    LABEL     ---     ---   SJA1000_Config
      C01D62H     PUBLIC    LABEL     ---     ---   SJASetBandRateStandard
      C01A96H     PUBLIC    LABEL     ---     ---   SJAQuitResetMode_BCan
      C01BC0H     PUBLIC    LABEL     ---     ---   SJASetClockDivision
      C01B66H     PUBLIC    LABEL     ---     ---   SJATestRstMode
L166 LINKER/LOCATER V5.25                                                             09/03/2014  17:57:06  PAGE 25


      C01A1CH     PUBLIC    LABEL     ---     ---   SJAEntryResetMode_BCan
      C01B7CH     PUBLIC    LABEL     ---     ---   SJASetOutControl
      C01CC8H     PUBLIC    LABEL     ---     ---   SJASetAccMask
      C01994H     PUBLIC    LABEL     ---     ---   SJATestInterface
      C01B32H     PUBLIC    LABEL     ---     ---   ClearBitMask
      C01A58H     PUBLIC    LABEL     ---     ---   SJAQuitResetMode
      C01C30H     PUBLIC    LABEL     ---     ---   SJASetAccCode
      C01902H     PUBLIC    LABEL     ---     ---   WriteSJAReg
      C01920H     PUBLIC    LABEL     ---     ---   select_chip
      C01F10H     PUBLIC    LABEL     ---     ---   SJARcvData
      C019DEH     PUBLIC    LABEL     ---     ---   SJAEntryResetMode
      00C90EH     PUBLIC    VAR       ---     ---   SJA_BTR_CODETAB
      00C92CH     PUBLIC    VAR       ---     ---   can_data
      00C92EH     PUBLIC    VAR       ---     ---   can_select

      C018E2H     BLOCK     LVL=0     0020H   ---   ReadSJAReg
      000048H     SYMBOL    REG       ---     ---   address
      C018E2H     BLOCK     LVL=1     001EH   ---   
      00008CH     SYMBOL    REG       ---     ---   candata
      ---         BLOCKEND  LVL=1     ---     ---   
      C018E2H     LINE      ---       ---     ---   #30
      C018E2H     LINE      ---       ---     ---   #31
      C018E4H     LINE      ---       ---     ---   #32
      C018F2H     LINE      ---       ---     ---   #33
      C018FEH     LINE      ---       ---     ---   #34
      C01900H     LINE      ---       ---     ---   #35
      ---         BLOCKEND  LVL=0     ---     ---   

      C01902H     BLOCK     LVL=0     001EH   ---   WriteSJAReg
      000048H     SYMBOL    REG       ---     ---   address
      000049H     SYMBOL    REG       ---     ---   value
      C01902H     LINE      ---       ---     ---   #36
      C01902H     LINE      ---       ---     ---   #38
      C01910H     LINE      ---       ---     ---   #39
      C0191EH     LINE      ---       ---     ---   #40
      ---         BLOCKEND  LVL=0     ---     ---   

      C01920H     BLOCK     LVL=0     0024H   ---   select_chip
      000048H     SYMBOL    REG       ---     ---   ChipNum
      C01920H     LINE      ---       ---     ---   #41
      C01920H     LINE      ---       ---     ---   #43
      C01926H     LINE      ---       ---     ---   #45
      C0192EH     LINE      ---       ---     ---   #46
      C01936H     LINE      ---       ---     ---   #47
      C01938H     LINE      ---       ---     ---   #50
      C0193EH     LINE      ---       ---     ---   #51
      C01942H     LINE      ---       ---     ---   #52
      C01942H     LINE      ---       ---     ---   #54
      ---         BLOCKEND  LVL=0     ---     ---   

      C01944H     BLOCK     LVL=0     002AH   ---   WriteSJARegBlock
      00008EH     SYMBOL    REG       ---     ---   RegAdr
      000006H     SYMBOL    REG       ---     ---   ValueBuf
      00004AH     SYMBOL    REG       ---     ---   len
      C01948H     BLOCK     LVL=1     0024H   ---   
      000084H     SYMBOL    REG       ---     ---   i
      ---         BLOCKEND  LVL=1     ---     ---   
L166 LINKER/LOCATER V5.25                                                             09/03/2014  17:57:06  PAGE 26


      C01944H     LINE      ---       ---     ---   #68
      C01948H     LINE      ---       ---     ---   #70
      C01948H     LINE      ---       ---     ---   #72
      C0194EH     LINE      ---       ---     ---   #73
      C01952H     LINE      ---       ---     ---   #76
      C01962H     LINE      ---       ---     ---   #77
      C0196AH     LINE      ---       ---     ---   #78
      C0196AH     LINE      ---       ---     ---   #79
      C0196CH     LINE      ---       ---     ---   #80
      ---         BLOCKEND  LVL=0     ---     ---   

      C0196EH     BLOCK     LVL=0     0026H   ---   ReadSJARegBlock
      00008EH     SYMBOL    REG       ---     ---   RegAdr
      000009H     SYMBOL    REG       ---     ---   ValueBuf
      00004AH     SYMBOL    REG       ---     ---   len
      C01970H     BLOCK     LVL=1     0022H   ---   
      000082H     SYMBOL    REG       ---     ---   i
      ---         BLOCKEND  LVL=1     ---     ---   
      C0196EH     LINE      ---       ---     ---   #94
      C01970H     LINE      ---       ---     ---   #96
      C01970H     LINE      ---       ---     ---   #98
      C01976H     LINE      ---       ---     ---   #99
      C0197AH     LINE      ---       ---     ---   #101
      C01988H     LINE      ---       ---     ---   #102
      C01990H     LINE      ---       ---     ---   #103
      C01990H     LINE      ---       ---     ---   #104
      C01992H     LINE      ---       ---     ---   #105
      ---         BLOCKEND  LVL=0     ---     ---   

      C01994H     BLOCK     LVL=0     004AH   ---   SJATestInterface
      000048H     SYMBOL    REG       ---     ---   testvalue
      C01996H     BLOCK     LVL=1     0044H   ---   
      000084H     SYMBOL    REG       ---     ---   status
      R15.0       SYMBOL    RBIT      ---     ---   ErrorFlag
      000082H     SYMBOL    REG       ---     ---   ErrorCount
      00008EH     SYMBOL    REG       ---     ---   temp
      ---         BLOCKEND  LVL=1     ---     ---   
      C01994H     LINE      ---       ---     ---   #117
      C01996H     LINE      ---       ---     ---   #118
      C01996H     LINE      ---       ---     ---   #119
      C01998H     LINE      ---       ---     ---   #120
      C0199AH     LINE      ---       ---     ---   #121
      C0199EH     LINE      ---       ---     ---   #122
      C019A0H     LINE      ---       ---     ---   #123
      C019A2H     LINE      ---       ---     ---   #125
      C019A8H     LINE      ---       ---     ---   #126
      C019B0H     LINE      ---       ---     ---   #127
      C019B2H     LINE      ---       ---     ---   #128
      C019B8H     LINE      ---       ---     ---   #129
      C019C0H     LINE      ---       ---     ---   #130
      C019C0H     LINE      ---       ---     ---   #131
      C019C6H     LINE      ---       ---     ---   #132
      C019C8H     LINE      ---       ---     ---   #133
      C019CAH     LINE      ---       ---     ---   #134
      C019CAH     LINE      ---       ---     ---   #135
      C019CAH     LINE      ---       ---     ---   #136
      C019D0H     LINE      ---       ---     ---   #138
L166 LINKER/LOCATER V5.25                                                             09/03/2014  17:57:06  PAGE 27


      C019D4H     LINE      ---       ---     ---   #139
      C019D8H     LINE      ---       ---     ---   #141
      C019D8H     LINE      ---       ---     ---   #142
      C019DAH     LINE      ---       ---     ---   #143
      ---         BLOCKEND  LVL=0     ---     ---   

      C019DEH     BLOCK     LVL=0     003EH   ---   SJAEntryResetMode
      C019E4H     BLOCK     LVL=1     0030H   ---   
      00004DH     SYMBOL    REG       ---     ---   status
      00004FH     SYMBOL    REG       ---     ---   ErrorFlag
      00004EH     SYMBOL    REG       ---     ---   ErrorCount
      ---         BLOCKEND  LVL=1     ---     ---   
      C019DEH     LINE      ---       ---     ---   #156
      C019E4H     LINE      ---       ---     ---   #157
      C019E4H     LINE      ---       ---     ---   #158
      C019E6H     LINE      ---       ---     ---   #159
      C019E8H     LINE      ---       ---     ---   #160
      C019ECH     LINE      ---       ---     ---   #161
      C019EEH     LINE      ---       ---     ---   #162
      C019FCH     LINE      ---       ---     ---   #163
      C019FEH     LINE      ---       ---     ---   #164
      C01A00H     LINE      ---       ---     ---   #165
      C01A0AH     LINE      ---       ---     ---   #167
      C01A10H     LINE      ---       ---     ---   #169
      C01A12H     LINE      ---       ---     ---   #170
      C01A12H     LINE      ---       ---     ---   #171
      C01A14H     LINE      ---       ---     ---   #172
      ---         BLOCKEND  LVL=0     ---     ---   

      C01A1CH     BLOCK     LVL=0     003CH   ---   SJAEntryResetMode_BCan
      C01A22H     BLOCK     LVL=1     002EH   ---   
      00004DH     SYMBOL    REG       ---     ---   status
      00004FH     SYMBOL    REG       ---     ---   ErrorFlag
      00004EH     SYMBOL    REG       ---     ---   ErrorCount
      ---         BLOCKEND  LVL=1     ---     ---   
      C01A1CH     LINE      ---       ---     ---   #174
      C01A22H     LINE      ---       ---     ---   #175
      C01A22H     LINE      ---       ---     ---   #176
      C01A24H     LINE      ---       ---     ---   #177
      C01A26H     LINE      ---       ---     ---   #178
      C01A2AH     LINE      ---       ---     ---   #179
      C01A2CH     LINE      ---       ---     ---   #180
      C01A38H     LINE      ---       ---     ---   #181
      C01A3AH     LINE      ---       ---     ---   #182
      C01A3CH     LINE      ---       ---     ---   #183
      C01A46H     LINE      ---       ---     ---   #185
      C01A4CH     LINE      ---       ---     ---   #187
      C01A4EH     LINE      ---       ---     ---   #188
      C01A4EH     LINE      ---       ---     ---   #189
      C01A50H     LINE      ---       ---     ---   #190
      ---         BLOCKEND  LVL=0     ---     ---   

      C01A58H     BLOCK     LVL=0     003EH   ---   SJAQuitResetMode
      C01A5EH     BLOCK     LVL=1     0030H   ---   
      00004DH     SYMBOL    REG       ---     ---   status
      00004FH     SYMBOL    REG       ---     ---   ErrorFlag
      00004EH     SYMBOL    REG       ---     ---   ErrorCount
L166 LINKER/LOCATER V5.25                                                             09/03/2014  17:57:06  PAGE 28


      ---         BLOCKEND  LVL=1     ---     ---   
      C01A58H     LINE      ---       ---     ---   #202
      C01A5EH     LINE      ---       ---     ---   #203
      C01A5EH     LINE      ---       ---     ---   #204
      C01A60H     LINE      ---       ---     ---   #205
      C01A62H     LINE      ---       ---     ---   #206
      C01A66H     LINE      ---       ---     ---   #207
      C01A68H     LINE      ---       ---     ---   #208
      C01A74H     LINE      ---       ---     ---   #209
      C01A76H     LINE      ---       ---     ---   #210
      C01A78H     LINE      ---       ---     ---   #211
      C01A82H     LINE      ---       ---     ---   #213
      C01A88H     LINE      ---       ---     ---   #214
      C01A8CH     LINE      ---       ---     ---   #216
      C01A8CH     LINE      ---       ---     ---   #217
      C01A8EH     LINE      ---       ---     ---   #218
      ---         BLOCKEND  LVL=0     ---     ---   

      C01A96H     BLOCK     LVL=0     003EH   ---   SJAQuitResetMode_BCan
      C01A9CH     BLOCK     LVL=1     0030H   ---   
      00004DH     SYMBOL    REG       ---     ---   status
      00004FH     SYMBOL    REG       ---     ---   ErrorFlag
      00004EH     SYMBOL    REG       ---     ---   ErrorCount
      ---         BLOCKEND  LVL=1     ---     ---   
      C01A96H     LINE      ---       ---     ---   #220
      C01A9CH     LINE      ---       ---     ---   #221
      C01A9CH     LINE      ---       ---     ---   #222
      C01A9EH     LINE      ---       ---     ---   #223
      C01AA0H     LINE      ---       ---     ---   #224
      C01AA4H     LINE      ---       ---     ---   #225
      C01AA6H     LINE      ---       ---     ---   #226
      C01AB2H     LINE      ---       ---     ---   #227
      C01AB4H     LINE      ---       ---     ---   #228
      C01AB6H     LINE      ---       ---     ---   #229
      C01AC0H     LINE      ---       ---     ---   #231
      C01AC6H     LINE      ---       ---     ---   #232
      C01ACAH     LINE      ---       ---     ---   #234
      C01ACAH     LINE      ---       ---     ---   #235
      C01ACCH     LINE      ---       ---     ---   #236
      ---         BLOCKEND  LVL=0     ---     ---   

      C01AD4H     BLOCK     LVL=0     0028H   ---   SJAEntryPeliCANMode
      C01AD6H     BLOCK     LVL=1     0022H   ---   
      00004DH     SYMBOL    REG       ---     ---   status
      ---         BLOCKEND  LVL=1     ---     ---   
      C01AD4H     LINE      ---       ---     ---   #249
      C01AD6H     LINE      ---       ---     ---   #250
      C01AD6H     LINE      ---       ---     ---   #251
      C01AD8H     LINE      ---       ---     ---   #252
      C01ADEH     LINE      ---       ---     ---   #253
      C01AE4H     LINE      ---       ---     ---   #254
      C01AE4H     LINE      ---       ---     ---   #255
      C01AEAH     LINE      ---       ---     ---   #256
      C01AF6H     LINE      ---       ---     ---   #257
      C01AF6H     LINE      ---       ---     ---   #258
      C01AF8H     LINE      ---       ---     ---   #259
      ---         BLOCKEND  LVL=0     ---     ---   
L166 LINKER/LOCATER V5.25                                                             09/03/2014  17:57:06  PAGE 29



      C01AFCH     BLOCK     LVL=0     0036H   ---   SetBitMask
      00008EH     SYMBOL    REG       ---     ---   RegAdr
      000049H     SYMBOL    REG       ---     ---   BitValue
      C01AFEH     BLOCK     LVL=1     0032H   ---   
      000082H     SYMBOL    REG       ---     ---   status
      000084H     SYMBOL    REG       ---     ---   temp
      ---         BLOCKEND  LVL=1     ---     ---   
      C01AFCH     LINE      ---       ---     ---   #273
      C01AFEH     LINE      ---       ---     ---   #274
      C01AFEH     LINE      ---       ---     ---   #275
      C01B00H     LINE      ---       ---     ---   #279
      C01B06H     LINE      ---       ---     ---   #280
      C01B10H     LINE      ---       ---     ---   #281
      C01B18H     LINE      ---       ---     ---   #282
      C01B1EH     LINE      ---       ---     ---   #283
      C01B28H     LINE      ---       ---     ---   #285
      C01B2AH     LINE      ---       ---     ---   #286
      C01B2CH     LINE      ---       ---     ---   #289
      C01B2EH     LINE      ---       ---     ---   #290
      C01B2EH     LINE      ---       ---     ---   #291
      C01B30H     LINE      ---       ---     ---   #292
      ---         BLOCKEND  LVL=0     ---     ---   

      C01B32H     BLOCK     LVL=0     0034H   ---   ClearBitMask
      00008EH     SYMBOL    REG       ---     ---   RegAdr
      000049H     SYMBOL    REG       ---     ---   BitValue
      C01B34H     BLOCK     LVL=1     0030H   ---   
      000082H     SYMBOL    REG       ---     ---   status
      000084H     SYMBOL    REG       ---     ---   temp
      ---         BLOCKEND  LVL=1     ---     ---   
      C01B32H     LINE      ---       ---     ---   #306
      C01B34H     LINE      ---       ---     ---   #307
      C01B34H     LINE      ---       ---     ---   #308
      C01B36H     LINE      ---       ---     ---   #311
      C01B44H     LINE      ---       ---     ---   #312
      C01B4CH     LINE      ---       ---     ---   #313
      C01B52H     LINE      ---       ---     ---   #314
      C01B5CH     LINE      ---       ---     ---   #316
      C01B5EH     LINE      ---       ---     ---   #317
      C01B60H     LINE      ---       ---     ---   #320
      C01B62H     LINE      ---       ---     ---   #321
      C01B62H     LINE      ---       ---     ---   #322
      C01B64H     LINE      ---       ---     ---   #323
      ---         BLOCKEND  LVL=0     ---     ---   

      C01B66H     BLOCK     LVL=0     0016H   ---   SJATestRstMode
      C01B66H     BLOCK     LVL=1     0014H   ---   
      00008EH     SYMBOL    REG       ---     ---   SjaFlag
      ---         BLOCKEND  LVL=1     ---     ---   
      C01B66H     LINE      ---       ---     ---   #336
      C01B66H     LINE      ---       ---     ---   #337
      C01B66H     LINE      ---       ---     ---   #339
      C01B72H     LINE      ---       ---     ---   #340
      C01B74H     LINE      ---       ---     ---   #341
      C01B76H     LINE      ---       ---     ---   #343
      C01B78H     LINE      ---       ---     ---   #344
L166 LINKER/LOCATER V5.25                                                             09/03/2014  17:57:06  PAGE 30


      C01B78H     LINE      ---       ---     ---   #345
      C01B7AH     LINE      ---       ---     ---   #346
      ---         BLOCKEND  LVL=0     ---     ---   

      C01B7CH     BLOCK     LVL=0     0044H   ---   SJASetOutControl
      000082H     SYMBOL    REG       ---     ---   OutCtrl
      C01B80H     BLOCK     LVL=1     003CH   ---   
      000084H     SYMBOL    REG       ---     ---   status
      R15.0       SYMBOL    RBIT      ---     ---   ErrorFlag
      000086H     SYMBOL    REG       ---     ---   ErrorCount
      ---         BLOCKEND  LVL=1     ---     ---   
      C01B7CH     LINE      ---       ---     ---   #360
      C01B80H     LINE      ---       ---     ---   #361
      C01B80H     LINE      ---       ---     ---   #362
      C01B82H     LINE      ---       ---     ---   #363
      C01B84H     LINE      ---       ---     ---   #364
      C01B88H     LINE      ---       ---     ---   #365
      C01B8EH     LINE      ---       ---     ---   #366
      C01B92H     LINE      ---       ---     ---   #367
      C01B94H     LINE      ---       ---     ---   #369
      C01B96H     LINE      ---       ---     ---   #370
      C01B9EH     LINE      ---       ---     ---   #371
      C01BA8H     LINE      ---       ---     ---   #372
      C01BAAH     LINE      ---       ---     ---   #373
      C01BACH     LINE      ---       ---     ---   #374
      C01BB2H     LINE      ---       ---     ---   #376
      C01BB6H     LINE      ---       ---     ---   #377
      C01BBAH     LINE      ---       ---     ---   #378
      C01BBAH     LINE      ---       ---     ---   #380
      C01BBCH     LINE      ---       ---     ---   #381
      ---         BLOCKEND  LVL=0     ---     ---   

      C01BC0H     BLOCK     LVL=0     0070H   ---   SJASetClockDivision
      000082H     SYMBOL    REG       ---     ---   clockdiv
      C01BC4H     BLOCK     LVL=1     0068H   ---   
      000084H     SYMBOL    REG       ---     ---   status
      00004BH     SYMBOL    REG       ---     ---   temp
      00004AH     SYMBOL    REG       ---     ---   temp1
      R15.0       SYMBOL    RBIT      ---     ---   ErrorFlag
      000086H     SYMBOL    REG       ---     ---   ErrorCount
      ---         BLOCKEND  LVL=1     ---     ---   
      C01BC0H     LINE      ---       ---     ---   #395
      C01BC4H     LINE      ---       ---     ---   #396
      C01BC4H     LINE      ---       ---     ---   #397
      C01BCAH     LINE      ---       ---     ---   #398
      C01BCCH     LINE      ---       ---     ---   #399
      C01BD0H     LINE      ---       ---     ---   #400
      C01BD6H     LINE      ---       ---     ---   #401
      C01BDAH     LINE      ---       ---     ---   #402
      C01BDCH     LINE      ---       ---     ---   #404
      C01BDEH     LINE      ---       ---     ---   #405
      C01BE8H     LINE      ---       ---     ---   #406
      C01BFAH     LINE      ---       ---     ---   #407
      C01C04H     LINE      ---       ---     ---   #408
      C01C18H     LINE      ---       ---     ---   #409
      C01C1AH     LINE      ---       ---     ---   #410
      C01C1CH     LINE      ---       ---     ---   #411
L166 LINKER/LOCATER V5.25                                                             09/03/2014  17:57:06  PAGE 31


      C01C22H     LINE      ---       ---     ---   #413
      C01C26H     LINE      ---       ---     ---   #414
      C01C2AH     LINE      ---       ---     ---   #415
      C01C2AH     LINE      ---       ---     ---   #417
      C01C2CH     LINE      ---       ---     ---   #418
      ---         BLOCKEND  LVL=0     ---     ---   

      C01C30H     BLOCK     LVL=0     0098H   ---   SJASetAccCode
      000084H     SYMBOL    REG       ---     ---   acr0
      000082H     SYMBOL    REG       ---     ---   acr1
      00004AH     SYMBOL    REG       ---     ---   acr2
      00004BH     SYMBOL    REG       ---     ---   acr3
      C01C36H     BLOCK     LVL=1     008EH   ---   
      000086H     SYMBOL    REG       ---     ---   status
      R15.0       SYMBOL    RBIT      ---     ---   ErrorFlag
      00004CH     SYMBOL    REG       ---     ---   ErrorCount
      ---         BLOCKEND  LVL=1     ---     ---   
      C01C30H     LINE      ---       ---     ---   #437
      C01C36H     LINE      ---       ---     ---   #440
      C01C36H     LINE      ---       ---     ---   #441
      C01C38H     LINE      ---       ---     ---   #442
      C01C3AH     LINE      ---       ---     ---   #443
      C01C3EH     LINE      ---       ---     ---   #444
      C01C44H     LINE      ---       ---     ---   #445
      C01C48H     LINE      ---       ---     ---   #446
      C01C4AH     LINE      ---       ---     ---   #448
      C01C4CH     LINE      ---       ---     ---   #449
      C01C56H     LINE      ---       ---     ---   #450
      C01C60H     LINE      ---       ---     ---   #451
      C01C6CH     LINE      ---       ---     ---   #452
      C01C78H     LINE      ---       ---     ---   #453
      C01C84H     LINE      ---       ---     ---   #454
      C01C90H     LINE      ---       ---     ---   #455
      C01C9EH     LINE      ---       ---     ---   #456
      C01CACH     LINE      ---       ---     ---   #457
      C01CAEH     LINE      ---       ---     ---   #458
      C01CB0H     LINE      ---       ---     ---   #459
      C01CBAH     LINE      ---       ---     ---   #460
      C01CBEH     LINE      ---       ---     ---   #461
      C01CC2H     LINE      ---       ---     ---   #462
      C01CC2H     LINE      ---       ---     ---   #464
      C01CC4H     LINE      ---       ---     ---   #466
      ---         BLOCKEND  LVL=0     ---     ---   

      C01CC8H     BLOCK     LVL=0     009AH   ---   SJASetAccMask
      000084H     SYMBOL    REG       ---     ---   amr0
      000082H     SYMBOL    REG       ---     ---   amr1
      00004AH     SYMBOL    REG       ---     ---   amr2
      00004BH     SYMBOL    REG       ---     ---   amr3
      C01CCEH     BLOCK     LVL=1     0090H   ---   
      000086H     SYMBOL    REG       ---     ---   status
      R15.0       SYMBOL    RBIT      ---     ---   ErrorFlag
      00004CH     SYMBOL    REG       ---     ---   ErrorCount
      ---         BLOCKEND  LVL=1     ---     ---   
      C01CC8H     LINE      ---       ---     ---   #485
      C01CCEH     LINE      ---       ---     ---   #488
      C01CCEH     LINE      ---       ---     ---   #489
L166 LINKER/LOCATER V5.25                                                             09/03/2014  17:57:06  PAGE 32


      C01CD0H     LINE      ---       ---     ---   #490
      C01CD2H     LINE      ---       ---     ---   #491
      C01CD6H     LINE      ---       ---     ---   #492
      C01CDEH     LINE      ---       ---     ---   #493
      C01CE2H     LINE      ---       ---     ---   #494
      C01CE4H     LINE      ---       ---     ---   #496
      C01CE6H     LINE      ---       ---     ---   #497
      C01CF0H     LINE      ---       ---     ---   #498
      C01CFAH     LINE      ---       ---     ---   #499
      C01D06H     LINE      ---       ---     ---   #500
      C01D12H     LINE      ---       ---     ---   #501
      C01D1EH     LINE      ---       ---     ---   #502
      C01D2AH     LINE      ---       ---     ---   #503
      C01D38H     LINE      ---       ---     ---   #504
      C01D46H     LINE      ---       ---     ---   #505
      C01D48H     LINE      ---       ---     ---   #506
      C01D4AH     LINE      ---       ---     ---   #507
      C01D54H     LINE      ---       ---     ---   #508
      C01D58H     LINE      ---       ---     ---   #509
      C01D5CH     LINE      ---       ---     ---   #510
      C01D5CH     LINE      ---       ---     ---   #512
      C01D5EH     LINE      ---       ---     ---   #513
      ---         BLOCKEND  LVL=0     ---     ---   

      C01D62H     BLOCK     LVL=0     0076H   ---   SJASetBandRateStandard
      00008EH     SYMBOL    REG       ---     ---   BandRateSize
      C01D66H     BLOCK     LVL=1     006EH   ---   
      000082H     SYMBOL    REG       ---     ---   status
      R15.0       SYMBOL    RBIT      ---     ---   ErrorFlag
      000084H     SYMBOL    REG       ---     ---   ErrorCount
      ---         BLOCKEND  LVL=1     ---     ---   
      C01D62H     LINE      ---       ---     ---   #560
      C01D66H     LINE      ---       ---     ---   #561
      C01D66H     LINE      ---       ---     ---   #562
      C01D68H     LINE      ---       ---     ---   #563
      C01D6AH     LINE      ---       ---     ---   #564
      C01D6EH     LINE      ---       ---     ---   #565
      C01D74H     LINE      ---       ---     ---   #566
      C01D78H     LINE      ---       ---     ---   #567
      C01D7AH     LINE      ---       ---     ---   #569
      C01D7CH     LINE      ---       ---     ---   #570
      C01D8CH     LINE      ---       ---     ---   #571
      C01D9CH     LINE      ---       ---     ---   #572
      C01DAEH     LINE      ---       ---     ---   #573
      C01DC0H     LINE      ---       ---     ---   #574
      C01DC2H     LINE      ---       ---     ---   #575
      C01DC4H     LINE      ---       ---     ---   #577
      C01DCAH     LINE      ---       ---     ---   #578
      C01DCEH     LINE      ---       ---     ---   #579
      C01DD2H     LINE      ---       ---     ---   #580
      C01DD2H     LINE      ---       ---     ---   #582
      C01DD4H     LINE      ---       ---     ---   #583
      ---         BLOCKEND  LVL=0     ---     ---   

      C01DD8H     BLOCK     LVL=0     0064H   ---   SJASystemPrgCMD
      00008EH     SYMBOL    REG       ---     ---   cmd
      C01DDAH     BLOCK     LVL=1     0060H   ---   
L166 LINKER/LOCATER V5.25                                                             09/03/2014  17:57:06  PAGE 33


      000082H     SYMBOL    REG       ---     ---   status
      ---         BLOCKEND  LVL=1     ---     ---   
      C01DD8H     LINE      ---       ---     ---   #597
      C01DDAH     LINE      ---       ---     ---   #598
      C01DDAH     LINE      ---       ---     ---   #599
      C01DDCH     LINE      ---       ---     ---   #601
      C01DFCH     LINE      ---       ---     ---   #602
      C01DFCH     LINE      ---       ---     ---   #603
      C01DFCH     LINE      ---       ---     ---   #604
      C01E04H     LINE      ---       ---     ---   #605
      C01E06H     LINE      ---       ---     ---   #606
      C01E06H     LINE      ---       ---     ---   #607
      C01E10H     LINE      ---       ---     ---   #608
      C01E14H     LINE      ---       ---     ---   #609
      C01E14H     LINE      ---       ---     ---   #610
      C01E16H     LINE      ---       ---     ---   #611
      C01E16H     LINE      ---       ---     ---   #612
      C01E1EH     LINE      ---       ---     ---   #613
      C01E20H     LINE      ---       ---     ---   #614
      C01E20H     LINE      ---       ---     ---   #615
      C01E28H     LINE      ---       ---     ---   #616
      C01E2AH     LINE      ---       ---     ---   #617
      C01E2AH     LINE      ---       ---     ---   #618
      C01E2AH     LINE      ---       ---     ---   #619
      C01E32H     LINE      ---       ---     ---   #620
      C01E34H     LINE      ---       ---     ---   #621
      C01E34H     LINE      ---       ---     ---   #622
      C01E38H     LINE      ---       ---     ---   #623
      C01E38H     LINE      ---       ---     ---   #624
      C01E38H     LINE      ---       ---     ---   #625
      C01E3AH     LINE      ---       ---     ---   #627
      ---         BLOCKEND  LVL=0     ---     ---   

      C01E3CH     BLOCK     LVL=0     00D4H   ---   SJASendData
      000048H     SYMBOL    REG       ---     ---   port
      00000BH     SYMBOL    REG       ---     ---   databuf
      000086H     SYMBOL    REG       ---     ---   cmd
      C01E44H     BLOCK     LVL=1     00C6H   ---   
      00004CH     SYMBOL    REG       ---     ---   status
      00004EH     SYMBOL    REG       ---     ---   len
      00004DH     SYMBOL    REG       ---     ---   temp
      ---         BLOCKEND  LVL=1     ---     ---   
      C01E3CH     LINE      ---       ---     ---   #648
      C01E44H     LINE      ---       ---     ---   #652
      C01E44H     LINE      ---       ---     ---   #653
      C01E46H     LINE      ---       ---     ---   #655
      C01E4EH     LINE      ---       ---     ---   #656
      C01E58H     LINE      ---       ---     ---   #658
      C01E60H     LINE      ---       ---     ---   #660
      C01E6AH     LINE      ---       ---     ---   #661
      C01E6EH     LINE      ---       ---     ---   #662
      C01E70H     LINE      ---       ---     ---   #663
      C01E7AH     LINE      ---       ---     ---   #664
      C01E7EH     LINE      ---       ---     ---   #665
      C01E80H     LINE      ---       ---     ---   #668
      C01EA0H     LINE      ---       ---     ---   #669
      C01EA0H     LINE      ---       ---     ---   #670
L166 LINKER/LOCATER V5.25                                                             09/03/2014  17:57:06  PAGE 34


      C01EA8H     LINE      ---       ---     ---   #671
      C01EB4H     LINE      ---       ---     ---   #672
      C01EBAH     LINE      ---       ---     ---   #673
      C01EBCH     LINE      ---       ---     ---   #674
      C01EBCH     LINE      ---       ---     ---   #675
      C01EBCH     LINE      ---       ---     ---   #676
      C01EC8H     LINE      ---       ---     ---   #677
      C01ECEH     LINE      ---       ---     ---   #678
      C01ED0H     LINE      ---       ---     ---   #679
      C01ED0H     LINE      ---       ---     ---   #680
      C01ED8H     LINE      ---       ---     ---   #681
      C01EE4H     LINE      ---       ---     ---   #682
      C01EECH     LINE      ---       ---     ---   #683
      C01EEEH     LINE      ---       ---     ---   #684
      C01EEEH     LINE      ---       ---     ---   #685
      C01EEEH     LINE      ---       ---     ---   #686
      C01EFAH     LINE      ---       ---     ---   #687
      C01F02H     LINE      ---       ---     ---   #688
      C01F04H     LINE      ---       ---     ---   #689
      C01F08H     LINE      ---       ---     ---   #690
      C01F08H     LINE      ---       ---     ---   #691
      C01F08H     LINE      ---       ---     ---   #692
      C01F08H     LINE      ---       ---     ---   #694
      C01F0AH     LINE      ---       ---     ---   #695
      ---         BLOCKEND  LVL=0     ---     ---   

      C01F10H     BLOCK     LVL=0     00C8H   ---   SJARcvData
      000048H     SYMBOL    REG       ---     ---   port
      00000BH     SYMBOL    REG       ---     ---   databuf
      C01F12H     BLOCK     LVL=1     00C4H   ---   
      000084H     SYMBOL    REG       ---     ---   status
      00004CH     SYMBOL    REG       ---     ---   len
      000086H     SYMBOL    REG       ---     ---   temp
      ---         BLOCKEND  LVL=1     ---     ---   
      C01F10H     LINE      ---       ---     ---   #709
      C01F12H     LINE      ---       ---     ---   #710
      C01F12H     LINE      ---       ---     ---   #711
      C01F14H     LINE      ---       ---     ---   #715
      C01F1CH     LINE      ---       ---     ---   #717
      C01F26H     LINE      ---       ---     ---   #718
      C01F2CH     LINE      ---       ---     ---   #719
      C01F34H     LINE      ---       ---     ---   #721
      C01F3EH     LINE      ---       ---     ---   #722
      C01F42H     LINE      ---       ---     ---   #723
      C01F44H     LINE      ---       ---     ---   #726
      C01F64H     LINE      ---       ---     ---   #727
      C01F64H     LINE      ---       ---     ---   #728
      C01F68H     LINE      ---       ---     ---   #729
      C01F78H     LINE      ---       ---     ---   #730
      C01F80H     LINE      ---       ---     ---   #731
      C01F82H     LINE      ---       ---     ---   #732
      C01F82H     LINE      ---       ---     ---   #734
      C01F90H     LINE      ---       ---     ---   #735
      C01F98H     LINE      ---       ---     ---   #736
      C01F9AH     LINE      ---       ---     ---   #737
      C01F9AH     LINE      ---       ---     ---   #738
      C01F9EH     LINE      ---       ---     ---   #739
L166 LINKER/LOCATER V5.25                                                             09/03/2014  17:57:06  PAGE 35


      C01FAEH     LINE      ---       ---     ---   #740
      C01FB6H     LINE      ---       ---     ---   #741
      C01FB8H     LINE      ---       ---     ---   #742
      C01FB8H     LINE      ---       ---     ---   #744
      C01FC6H     LINE      ---       ---     ---   #745
      C01FCEH     LINE      ---       ---     ---   #746
      C01FD0H     LINE      ---       ---     ---   #747
      C01FD4H     LINE      ---       ---     ---   #748
      C01FD4H     LINE      ---       ---     ---   #749
      C01FD4H     LINE      ---       ---     ---   #750
      C01FD4H     LINE      ---       ---     ---   #751
      C01FD6H     LINE      ---       ---     ---   #752
      ---         BLOCKEND  LVL=0     ---     ---   

      C01FD8H     BLOCK     LVL=0     0008H   ---   ReadALCReg
      C01FD8H     LINE      ---       ---     ---   #763
      C01FD8H     LINE      ---       ---     ---   #765
      C01FDEH     LINE      ---       ---     ---   #766
      ---         BLOCKEND  LVL=0     ---     ---   

      C01FE0H     BLOCK     LVL=0     0008H   ---   ReadECCReg
      C01FE0H     LINE      ---       ---     ---   #777
      C01FE0H     LINE      ---       ---     ---   #779
      C01FE6H     LINE      ---       ---     ---   #780
      ---         BLOCKEND  LVL=0     ---     ---   

      C01FE8H     BLOCK     LVL=0     01F2H   ---   SJA1000_Config
      000008H     SYMBOL    AUTO      ---     ---   ChipConfig
      C01FECH     BLOCK     LVL=1     01E8H   ---   
      000000H     SYMBOL    AUTO      ---     ---   ACR
      000004H     SYMBOL    AUTO      ---     ---   AMR
      ---         BLOCKEND  LVL=1     ---     ---   
      C01FE8H     LINE      ---       ---     ---   #791
      C01FECH     LINE      ---       ---     ---   #792
      C01FECH     LINE      ---       ---     ---   #796
      C01FF6H     LINE      ---       ---     ---   #797
      C01FFAH     LINE      ---       ---     ---   #798
      C01FFEH     LINE      ---       ---     ---   #799
      C02004H     LINE      ---       ---     ---   #801
      C0200AH     LINE      ---       ---     ---   #802
      C02028H     LINE      ---       ---     ---   #803
      C02040H     LINE      ---       ---     ---   #804
      C02046H     LINE      ---       ---     ---   #805
      C0204AH     LINE      ---       ---     ---   #806
      C0205CH     LINE      ---       ---     ---   #807
      C0207CH     LINE      ---       ---     ---   #808
      C02094H     LINE      ---       ---     ---   #809
      C0209CH     LINE      ---       ---     ---   #810
      C020A0H     LINE      ---       ---     ---   #811
      C020BCH     LINE      ---       ---     ---   #812
      C020BEH     LINE      ---       ---     ---   #815
      C020D4H     LINE      ---       ---     ---   #816
      C020ECH     LINE      ---       ---     ---   #817
      C02104H     LINE      ---       ---     ---   #818
      C0211CH     LINE      ---       ---     ---   #819
      C02132H     LINE      ---       ---     ---   #820
      C0214AH     LINE      ---       ---     ---   #821
L166 LINKER/LOCATER V5.25                                                             09/03/2014  17:57:06  PAGE 36


      C02162H     LINE      ---       ---     ---   #822
      C0217AH     LINE      ---       ---     ---   #823
      C02194H     LINE      ---       ---     ---   #824
      C021AEH     LINE      ---       ---     ---   #825
      C021AEH     LINE      ---       ---     ---   #826
      C021B8H     LINE      ---       ---     ---   #827
      C021C0H     LINE      ---       ---     ---   #829
      C021C8H     LINE      ---       ---     ---   #830
      C021CCH     LINE      ---       ---     ---   #831
      C021D4H     LINE      ---       ---     ---   #832
      ---         BLOCKEND  LVL=0     ---     ---   
      C02DB0H     PUBLIC    LABEL     ---     ---   emergencyStop
      C02E36H     PUBLIC    LABEL     ---     ---   EMCY_setError
      C02F68H     PUBLIC    LABEL     ---     ---   EMCY_errorRecovered
      C02D92H     PUBLIC    LABEL     ---     ---   emergencyInit
      C02DB2H     PUBLIC    LABEL     ---     ---   sendEMCY
      C02D62H     PUBLIC    LABEL     ---     ---   OnNumberOfErrorsUpdate
      C0302EH     PUBLIC    LABEL     ---     ---   _post_emcy
      C02FF4H     PUBLIC    LABEL     ---     ---   proceedEMCY

      C02D62H     BLOCK     LVL=0     0030H   ---   OnNumberOfErrorsUpdate
      000008H     SYMBOL    REG       ---     ---   d
      000009H     SYMBOL    REG       ---     ---   unsused_indextable
      00004AH     SYMBOL    REG       ---     ---   unsused_bSubindex
      C02D62H     BLOCK     LVL=1     002EH   ---   
      000082H     SYMBOL    REG       ---     ---   index
      ---         BLOCKEND  LVL=1     ---     ---   
      C02D62H     LINE      ---       ---     ---   #57
      C02D62H     LINE      ---       ---     ---   #58
      C02D62H     LINE      ---       ---     ---   #62
      C02D6AH     LINE      ---       ---     ---   #63
      C02D72H     LINE      ---       ---     ---   #64
      C02D8CH     LINE      ---       ---     ---   #66
      C02D8CH     LINE      ---       ---     ---   #67
      C02D90H     LINE      ---       ---     ---   #68
      ---         BLOCKEND  LVL=0     ---     ---   

      C02D92H     BLOCK     LVL=0     001EH   ---   emergencyInit
      00000DH     SYMBOL    REG       ---     ---   d
      C02D92H     LINE      ---       ---     ---   #75
      C02D96H     LINE      ---       ---     ---   #77
      C02DA4H     LINE      ---       ---     ---   #79
      C02DACH     LINE      ---       ---     ---   #80
      ---         BLOCKEND  LVL=0     ---     ---   

      C02DB0H     BLOCK     LVL=0     0002H   ---   emergencyStop
      000008H     SYMBOL    REG       ---     ---   d
      C02DB0H     LINE      ---       ---     ---   #87
      C02DB0H     LINE      ---       ---     ---   #90
      ---         BLOCKEND  LVL=0     ---     ---   

      C02DB2H     BLOCK     LVL=0     0084H   ---   sendEMCY
      000006H     SYMBOL    REG       ---     ---   d
      000009H     SYMBOL    REG       ---     ---   errCode
      00004AH     SYMBOL    REG       ---     ---   errRegister
      00000BH     SYMBOL    REG       ---     ---   Specific
      00004CH     SYMBOL    REG       ---     ---   SpecificLength
L166 LINKER/LOCATER V5.25                                                             09/03/2014  17:57:06  PAGE 37


      C02DB8H     BLOCK     LVL=1     0078H   ---   
      000000H     SYMBOL    AUTO      ---     ---   m
      ---         BLOCKEND  LVL=1     ---     ---   
      C02DB2H     LINE      ---       ---     ---   #100
      C02DB8H     LINE      ---       ---     ---   #101
      C02DB8H     LINE      ---       ---     ---   #106
      C02DC0H     LINE      ---       ---     ---   #107
      C02DC6H     LINE      ---       ---     ---   #108
      C02DD0H     LINE      ---       ---     ---   #109
      C02DDCH     LINE      ---       ---     ---   #110
      C02DE2H     LINE      ---       ---     ---   #112
      C02DE6H     LINE      ---       ---     ---   #114
      C02DECH     LINE      ---       ---     ---   #115
      C02DF0H     LINE      ---       ---     ---   #116
      C02DF4H     LINE      ---       ---     ---   #117
      C02DF8H     LINE      ---       ---     ---   #118
      C02DFCH     LINE      ---       ---     ---   #119
      C02DFEH     LINE      ---       ---     ---   #120
      C02E00H     LINE      ---       ---     ---   #123
      C02E08H     LINE      ---       ---     ---   #124
      C02E1CH     LINE      ---       ---     ---   #125
      C02E1CH     LINE      ---       ---     ---   #126
      C02E24H     LINE      ---       ---     ---   #128
      C02E30H     LINE      ---       ---     ---   #129
      ---         BLOCKEND  LVL=0     ---     ---   

      C02E36H     BLOCK     LVL=0     0132H   ---   EMCY_setError
      000002H     SYMBOL    REG       ---     ---   d
      000003H     SYMBOL    REG       ---     ---   errCode
      00004AH     SYMBOL    REG       ---     ---   errRegMask
      00000BH     SYMBOL    REG       ---     ---   addInfo
      C02E3AH     BLOCK     LVL=1     012CH   ---   
      000048H     SYMBOL    REG       ---     ---   index
      00008CH     SYMBOL    REG       ---     ---   errRegister_tmp
      ---         BLOCKEND  LVL=1     ---     ---   
      C02E36H     LINE      ---       ---     ---   #139
      C02E3AH     LINE      ---       ---     ---   #140
      C02E3AH     LINE      ---       ---     ---   #144
      C02E3CH     LINE      ---       ---     ---   #146
      C02E4EH     LINE      ---       ---     ---   #148
      C02E54H     LINE      ---       ---     ---   #151
      C02E58H     LINE      ---       ---     ---   #152
      C02E5EH     LINE      ---       ---     ---   #153
      C02E60H     LINE      ---       ---     ---   #154
      C02E6AH     LINE      ---       ---     ---   #157
      C02E72H     LINE      ---       ---     ---   #158
      C02E8CH     LINE      ---       ---     ---   #160
      C02E94H     LINE      ---       ---     ---   #163
      C02E98H     LINE      ---       ---     ---   #164
      C02E98H     LINE      ---       ---     ---   #166
      C02EA4H     LINE      ---       ---     ---   #167
      C02EB2H     LINE      ---       ---     ---   #168
      C02EC0H     LINE      ---       ---     ---   #171
      C02EC6H     LINE      ---       ---     ---   #174
      C02ECAH     LINE      ---       ---     ---   #175
      C02EECH     LINE      ---       ---     ---   #176
      C02EF2H     LINE      ---       ---     ---   #179
L166 LINKER/LOCATER V5.25                                                             09/03/2014  17:57:06  PAGE 38


      C02EFCH     LINE      ---       ---     ---   #180
      C02F20H     LINE      ---       ---     ---   #181
      C02F36H     LINE      ---       ---     ---   #182
      C02F48H     LINE      ---       ---     ---   #185
      C02F4EH     LINE      ---       ---     ---   #186
      C02F64H     LINE      ---       ---     ---   #187
      C02F66H     LINE      ---       ---     ---   #188
      ---         BLOCKEND  LVL=0     ---     ---   

      C02F68H     BLOCK     LVL=0     008CH   ---   EMCY_errorRecovered
      00000DH     SYMBOL    REG       ---     ---   d
      000009H     SYMBOL    REG       ---     ---   errCode
      C02F6EH     BLOCK     LVL=1     0080H   ---   
      00008EH     SYMBOL    REG       ---     ---   index
      00004EH     SYMBOL    REG       ---     ---   errRegister_tmp
      000084H     SYMBOL    REG       ---     ---   anyActiveError
      ---         BLOCKEND  LVL=1     ---     ---   
      C02F68H     LINE      ---       ---     ---   #198
      C02F6EH     LINE      ---       ---     ---   #199
      C02F6EH     LINE      ---       ---     ---   #202
      C02F70H     LINE      ---       ---     ---   #204
      C02F72H     LINE      ---       ---     ---   #205
      C02F88H     LINE      ---       ---     ---   #208
      C02F9EH     LINE      ---       ---     ---   #210
      C02FA4H     LINE      ---       ---     ---   #213
      C02FA8H     LINE      ---       ---     ---   #214
      C02FB8H     LINE      ---       ---     ---   #216
      C02FBAH     LINE      ---       ---     ---   #217
      C02FC0H     LINE      ---       ---     ---   #218
      C02FC8H     LINE      ---       ---     ---   #219
      C02FCCH     LINE      ---       ---     ---   #221
      C02FD2H     LINE      ---       ---     ---   #223
      C02FD8H     LINE      ---       ---     ---   #224
      C02FE6H     LINE      ---       ---     ---   #225
      C02FE6H     LINE      ---       ---     ---   #226
      C02FEEH     LINE      ---       ---     ---   #227
      C02FEEH     LINE      ---       ---     ---   #229
      C02FEEH     LINE      ---       ---     ---   #230
      ---         BLOCKEND  LVL=0     ---     ---   

      C02FF4H     BLOCK     LVL=0     003AH   ---   proceedEMCY
      000006H     SYMBOL    REG       ---     ---   d
      000009H     SYMBOL    REG       ---     ---   m
      C02FF6H     BLOCK     LVL=1     0036H   ---   
      00008EH     SYMBOL    REG       ---     ---   nodeID
      000005H     SYMBOL    REG       ---     ---   errCode
      000088H     SYMBOL    REG       ---     ---   errReg
      ---         BLOCKEND  LVL=1     ---     ---   
      C02FF4H     LINE      ---       ---     ---   #239
      C02FF6H     LINE      ---       ---     ---   #240
      C02FF6H     LINE      ---       ---     ---   #248
      C03000H     LINE      ---       ---     ---   #250
      C03000H     LINE      ---       ---     ---   #251
      C03000H     LINE      ---       ---     ---   #254
      C03008H     LINE      ---       ---     ---   #255
      C0301AH     LINE      ---       ---     ---   #256
      C0301EH     LINE      ---       ---     ---   #257
L166 LINKER/LOCATER V5.25                                                             09/03/2014  17:57:06  PAGE 39


      C0302CH     LINE      ---       ---     ---   #258
      ---         BLOCKEND  LVL=0     ---     ---   

      C0302EH     BLOCK     LVL=0     0002H   ---   _post_emcy
      000008H     SYMBOL    REG       ---     ---   d
      000049H     SYMBOL    REG       ---     ---   nodeID
      00000AH     SYMBOL    REG       ---     ---   errCode
      00004BH     SYMBOL    REG       ---     ---   errReg
      C0302EH     LINE      ---       ---     ---   #260
      ---         BLOCKEND  LVL=0     ---     ---   
      C023C4H     PUBLIC    LABEL     ---     ---   _setODentry
      C021E2H     PUBLIC    LABEL     ---     ---   _getODentry
      C026AEH     PUBLIC    LABEL     ---     ---   _storeODSubIndex
      C02652H     PUBLIC    LABEL     ---     ---   scanIndexOD
      C02666H     PUBLIC    LABEL     ---     ---   RegisterSetODentryCallBack
      C021DAH     PUBLIC    LABEL     ---     ---   accessDictionaryError

      C021DAH     BLOCK     LVL=0     0008H   ---   accessDictionaryError
      000008H     SYMBOL    REG       ---     ---   index
      000049H     SYMBOL    REG       ---     ---   subIndex
      00000AH     SYMBOL    REG       ---     ---   sizeDataDict
      000000H     SYMBOL    AUTO      ---     ---   sizeDataGiven
      000004H     SYMBOL    AUTO      ---     ---   code
      C021DAH     LINE      ---       ---     ---   #45
      C021DCH     LINE      ---       ---     ---   #79
      C021DEH     LINE      ---       ---     ---   #80
      ---         BLOCKEND  LVL=0     ---     ---   

      C021E2H     BLOCK     LVL=0     01E2H   ---   _getODentry
      000004H     SYMBOL    REG       ---     ---   d
      00000CH     SYMBOL    AUTO      ---     ---   wIndex
      00004DH     SYMBOL    REG       ---     ---   bSubindex
      00000FH     SYMBOL    REG       ---     ---   pDestData
      00000EH     SYMBOL    REG       ---     ---   pExpectedSize
      00000EH     SYMBOL    AUTO      ---     ---   pDataType
      000010H     SYMBOL    AUTO      ---     ---   checkAccess
      000012H     SYMBOL    AUTO      ---     ---   endianize
      C021F6H     BLOCK     LVL=1     01C2H   ---   
      000000H     SYMBOL    AUTO      ---     ---   errorCode
      000004H     SYMBOL    AUTO      ---     ---   szData
      000002H     SYMBOL    REG       ---     ---   ptrTable
      000008H     SYMBOL    AUTO      ---     ---   Callback
      C02334H     BLOCK     LVL=2     0080H   ---   
      00000AH     SYMBOL    AUTO      ---     ---   ptr
      000008H     SYMBOL    REG       ---     ---   ptr_start
      000007H     SYMBOL    REG       ---     ---   ptr_end
      00000FH     SYMBOL    REG       ---     ---   ptr_dest
      ---         BLOCKEND  LVL=2     ---     ---   
      ---         BLOCKEND  LVL=1     ---     ---   
      C021E2H     LINE      ---       ---     ---   #82
      C021F6H     LINE      ---       ---     ---   #90
      C021F6H     LINE      ---       ---     ---   #97
      C02208H     LINE      ---       ---     ---   #99
      C02214H     LINE      ---       ---     ---   #100
      C0221CH     LINE      ---       ---     ---   #101
      C02226H     LINE      ---       ---     ---   #103
      C0224AH     LINE      ---       ---     ---   #104
L166 LINKER/LOCATER V5.25                                                             09/03/2014  17:57:06  PAGE 40


      C02256H     LINE      ---       ---     ---   #105
      C02256H     LINE      ---       ---     ---   #107
      C0226CH     LINE      ---       ---     ---   #109
      C0228EH     LINE      ---       ---     ---   #110
      C02298H     LINE      ---       ---     ---   #111
      C02298H     LINE      ---       ---     ---   #113
      C0229CH     LINE      ---       ---     ---   #114
      C022A6H     LINE      ---       ---     ---   #115
      C022A6H     LINE      ---       ---     ---   #117
      C022C6H     LINE      ---       ---     ---   #120
      C022D4H     LINE      ---       ---     ---   #121
      C022DCH     LINE      ---       ---     ---   #122
      C022DCH     LINE      ---       ---     ---   #124
      C022E6H     LINE      ---       ---     ---   #125
      C02302H     LINE      ---       ---     ---   #145
      C0230EH     LINE      ---       ---     ---   #146
      C02324H     LINE      ---       ---     ---   #147
      C02332H     LINE      ---       ---     ---   #148
      C02334H     LINE      ---       ---     ---   #154
      C0233EH     LINE      ---       ---     ---   #155
      C02340H     LINE      ---       ---     ---   #157
      C02362H     LINE      ---       ---     ---   #158
      C02362H     LINE      ---       ---     ---   #159
      C02364H     LINE      ---       ---     ---   #160
      C02378H     LINE      ---       ---     ---   #161
      C02388H     LINE      ---       ---     ---   #163
      C02398H     LINE      ---       ---     ---   #165
      C023ACH     LINE      ---       ---     ---   #166
      C023B4H     LINE      ---       ---     ---   #167
      C023B4H     LINE      ---       ---     ---   #169
      C023B8H     LINE      ---       ---     ---   #170
      ---         BLOCKEND  LVL=0     ---     ---   

      C023C4H     BLOCK     LVL=0     028EH   ---   _setODentry
      00000EH     SYMBOL    AUTO      ---     ---   d
      00000FH     SYMBOL    REG       ---     ---   wIndex
      00004DH     SYMBOL    REG       ---     ---   bSubindex
      000010H     SYMBOL    AUTO      ---     ---   pSourceData
      00000EH     SYMBOL    REG       ---     ---   pExpectedSize
      000012H     SYMBOL    AUTO      ---     ---   checkAccess
      000014H     SYMBOL    AUTO      ---     ---   endianize
      C023D8H     BLOCK     LVL=1     026EH   ---   
      000000H     SYMBOL    AUTO      ---     ---   szData
      000004H     SYMBOL    AUTO      ---     ---   dataType
      000006H     SYMBOL    AUTO      ---     ---   errorCode
      00000AH     SYMBOL    AUTO      ---     ---   ptrTable
      00000CH     SYMBOL    AUTO      ---     ---   Callback
      ---         BLOCKEND  LVL=1     ---     ---   
      C023C4H     LINE      ---       ---     ---   #172
      C023D8H     LINE      ---       ---     ---   #179
      C023D8H     LINE      ---       ---     ---   #186
      C023F0H     LINE      ---       ---     ---   #187
      C023FEH     LINE      ---       ---     ---   #188
      C02406H     LINE      ---       ---     ---   #190
      C02414H     LINE      ---       ---     ---   #192
      C0243AH     LINE      ---       ---     ---   #193
      C02446H     LINE      ---       ---     ---   #194
L166 LINKER/LOCATER V5.25                                                             09/03/2014  17:57:06  PAGE 41


      C02446H     LINE      ---       ---     ---   #197
      C0245CH     LINE      ---       ---     ---   #199
      C02480H     LINE      ---       ---     ---   #200
      C0248AH     LINE      ---       ---     ---   #201
      C0248AH     LINE      ---       ---     ---   #204
      C0249EH     LINE      ---       ---     ---   #205
      C024ACH     LINE      ---       ---     ---   #207
      C024DCH     LINE      ---       ---     ---   #230
      C024FCH     LINE      ---       ---     ---   #231
      C02500H     LINE      ---       ---     ---   #232
      C0252AH     LINE      ---       ---     ---   #233
      C02536H     LINE      ---       ---     ---   #234
      C02536H     LINE      ---       ---     ---   #235
      C0255AH     LINE      ---       ---     ---   #241
      C0257AH     LINE      ---       ---     ---   #242
      C02592H     LINE      ---       ---     ---   #244
      C0259EH     LINE      ---       ---     ---   #247
      C025B2H     LINE      ---       ---     ---   #248
      C025CEH     LINE      ---       ---     ---   #249
      C025D2H     LINE      ---       ---     ---   #251
      C025DCH     LINE      ---       ---     ---   #252
      C025DCH     LINE      ---       ---     ---   #256
      C025F0H     LINE      ---       ---     ---   #257
      C02602H     LINE      ---       ---     ---   #258
      C02602H     LINE      ---       ---     ---   #259
      C02608H     LINE      ---       ---     ---   #260
      C02608H     LINE      ---       ---     ---   #261
      C02614H     LINE      ---       ---     ---   #262
      C0263EH     LINE      ---       ---     ---   #263
      C02646H     LINE      ---       ---     ---   #264
      C02646H     LINE      ---       ---     ---   #265
      ---         BLOCKEND  LVL=0     ---     ---   

      C02652H     BLOCK     LVL=0     0014H   ---   scanIndexOD
      000006H     SYMBOL    REG       ---     ---   d
      000005H     SYMBOL    REG       ---     ---   wIndex
      000004H     SYMBOL    REG       ---     ---   errorCode
      00000BH     SYMBOL    REG       ---     ---   Callback
      C02652H     LINE      ---       ---     ---   #267
      C02658H     LINE      ---       ---     ---   #269
      C02664H     LINE      ---       ---     ---   #270
      ---         BLOCKEND  LVL=0     ---     ---   

      C02666H     BLOCK     LVL=0     0048H   ---   RegisterSetODentryCallBack
      000005H     SYMBOL    REG       ---     ---   d
      000004H     SYMBOL    REG       ---     ---   wIndex
      00004DH     SYMBOL    REG       ---     ---   bSubindex
      00000EH     SYMBOL    REG       ---     ---   Callback
      C02674H     BLOCK     LVL=1     0032H   ---   
      000000H     SYMBOL    AUTO      ---     ---   errorCode
      000004H     SYMBOL    AUTO      ---     ---   CallbackList
      000006H     SYMBOL    REG       ---     ---   odentry
      ---         BLOCKEND  LVL=1     ---     ---   
      C02666H     LINE      ---       ---     ---   #272
      C02674H     LINE      ---       ---     ---   #273
      C02674H     LINE      ---       ---     ---   #278
      C0267EH     LINE      ---       ---     ---   #279
L166 LINKER/LOCATER V5.25                                                             09/03/2014  17:57:06  PAGE 42


      C02698H     LINE      ---       ---     ---   #280
      C026A0H     LINE      ---       ---     ---   #281
      C026A6H     LINE      ---       ---     ---   #282
      ---         BLOCKEND  LVL=0     ---     ---   

      C026AEH     BLOCK     LVL=0     0002H   ---   _storeODSubIndex
      000008H     SYMBOL    REG       ---     ---   d
      000009H     SYMBOL    REG       ---     ---   wIndex
      00004AH     SYMBOL    REG       ---     ---   bSubindex
      C026AEH     LINE      ---       ---     ---   #284
      ---         BLOCKEND  LVL=0     ---     ---   
      C0179CH     PUBLIC    LABEL     ---     ---   PDOInit
      C009B8H     PUBLIC    LABEL     ---     ---   buildPDO
      C016C8H     PUBLIC    LABEL     ---     ---   TPDO_Communication_Parameter_Callback
      C013D0H     PUBLIC    LABEL     ---     ---   PDOEventTimerAlarm
      C011E6H     PUBLIC    LABEL     ---     ---   sendOnePDOevent
      C00C04H     PUBLIC    LABEL     ---     ---   proceedPDO
      C011DCH     PUBLIC    LABEL     ---     ---   sendPDOevent
      C010ECH     PUBLIC    LABEL     ---     ---   CopyBits
      C01418H     PUBLIC    LABEL     ---     ---   PDOInhibitTimerAlarm
      C00B94H     PUBLIC    LABEL     ---     ---   sendPDOrequest
      C01462H     PUBLIC    LABEL     ---     ---   _sendPDOevent
      C01460H     PUBLIC    LABEL     ---     ---   _RxPDO_EventTimers_Handler
      C0181CH     PUBLIC    LABEL     ---     ---   PDOStop
      C011ACH     SYMBOL    LABEL     ---     ---   sendPdo
      C04128H     SYMBOL    VAR       ---     ---   ?tpl?0002
      C04130H     SYMBOL    VAR       ---     ---   ?tpl?0001

      C009B8H     BLOCK     LVL=0     01DCH   ---   buildPDO
      00000DH     SYMBOL    REG       ---     ---   d
      000049H     SYMBOL    REG       ---     ---   numPdo
      00000EH     SYMBOL    REG       ---     ---   pdo
      C009C6H     BLOCK     LVL=1     01C2H   ---   
      000007H     SYMBOL    REG       ---     ---   TPDO_com
      000000H     SYMBOL    AUTO      ---     ---   TPDO_map
      00004FH     SYMBOL    REG       ---     ---   prp_j
      000002H     SYMBOL    AUTO      ---     ---   offset
      000006H     SYMBOL    AUTO      ---     ---   pMappingCount
      C00A2EH     BLOCK     LVL=2     012CH   ---   
      000008H     SYMBOL    AUTO      ---     ---   dataType
      00000AH     SYMBOL    AUTO      ---     ---   tmp
      000008H     SYMBOL    REG       ---     ---   pMappingParameter
      000012H     SYMBOL    AUTO      ---     ---   index
      000014H     SYMBOL    AUTO      ---     ---   Size
      C00A8EH     BLOCK     LVL=3     00CAH   ---   
      000018H     SYMBOL    AUTO      ---     ---   ByteSize
      000084H     SYMBOL    REG       ---     ---   subIndex
      ---         BLOCKEND  LVL=3     ---     ---   
      ---         BLOCKEND  LVL=2     ---     ---   
      ---         BLOCKEND  LVL=1     ---     ---   
      C009B8H     LINE      ---       ---     ---   #49
      C009C6H     LINE      ---       ---     ---   #50
      C009C6H     LINE      ---       ---     ---   #51
      C009EEH     LINE      ---       ---     ---   #52
      C00A02H     LINE      ---       ---     ---   #54
      C00A04H     LINE      ---       ---     ---   #55
      C00A0EH     LINE      ---       ---     ---   #56
L166 LINKER/LOCATER V5.25                                                             09/03/2014  17:57:06  PAGE 43


      C00A18H     LINE      ---       ---     ---   #58
      C00A28H     LINE      ---       ---     ---   #59
      C00A2EH     LINE      ---       ---     ---   #65
      C00A2EH     LINE      ---       ---     ---   #66
      C00A2EH     LINE      ---       ---     ---   #68
      C00A40H     LINE      ---       ---     ---   #72
      C00A52H     LINE      ---       ---     ---   #73
      C00A5CH     LINE      ---       ---     ---   #74
      C00A6EH     LINE      ---       ---     ---   #77
      C00A8EH     LINE      ---       ---     ---   #78
      C00A8EH     LINE      ---       ---     ---   #79
      C00AB0H     LINE      ---       ---     ---   #81
      C00AC8H     LINE      ---       ---     ---   #87
      C00AF4H     LINE      ---       ---     ---   #93
      C00AFAH     LINE      ---       ---     ---   #94
      C00AFAH     LINE      ---       ---     ---   #97
      C00B3CH     LINE      ---       ---     ---   #99
      C00B58H     LINE      ---       ---     ---   #100
      C00B58H     LINE      ---       ---     ---   #101
      C00B5AH     LINE      ---       ---     ---   #102
      C00B66H     LINE      ---       ---     ---   #105
      C00B86H     LINE      ---       ---     ---   #109
      C00B88H     LINE      ---       ---     ---   #110
      ---         BLOCKEND  LVL=0     ---     ---   

      C00B94H     BLOCK     LVL=0     0070H   ---   sendPDOrequest
      000008H     SYMBOL    REG       ---     ---   d
      000009H     SYMBOL    REG       ---     ---   RPDOIndex
      C00B98H     BLOCK     LVL=1     0066H   ---   
      000004H     SYMBOL    REG       ---     ---   pwCobId
      000006H     SYMBOL    REG       ---     ---   offset
      000007H     SYMBOL    REG       ---     ---   lastIndex
      C00BDCH     BLOCK     LVL=2     001EH   ---   
      000000H     SYMBOL    AUTO      ---     ---   pdo
      ---         BLOCKEND  LVL=2     ---     ---   
      ---         BLOCKEND  LVL=1     ---     ---   
      C00B94H     LINE      ---       ---     ---   #121
      C00B98H     LINE      ---       ---     ---   #122
      C00B98H     LINE      ---       ---     ---   #124
      C00BA0H     LINE      ---       ---     ---   #125
      C00BA8H     LINE      ---       ---     ---   #127
      C00BAEH     LINE      ---       ---     ---   #129
      C00BB2H     LINE      ---       ---     ---   #130
      C00BB2H     LINE      ---       ---     ---   #138
      C00BBCH     LINE      ---       ---     ---   #140
      C00BC4H     LINE      ---       ---     ---   #141
      C00BC8H     LINE      ---       ---     ---   #144
      C00BDCH     LINE      ---       ---     ---   #147
      C00BDCH     LINE      ---       ---     ---   #149
      C00BE0H     LINE      ---       ---     ---   #150
      C00BE6H     LINE      ---       ---     ---   #151
      C00BECH     LINE      ---       ---     ---   #152
      C00BFAH     LINE      ---       ---     ---   #154
      C00BFAH     LINE      ---       ---     ---   #157
      C00BFEH     LINE      ---       ---     ---   #158
      ---         BLOCKEND  LVL=0     ---     ---   

L166 LINKER/LOCATER V5.25                                                             09/03/2014  17:57:06  PAGE 44


      C00C04H     BLOCK     LVL=0     04E8H   ---   proceedPDO
      00000DH     SYMBOL    REG       ---     ---   d
      00000EH     SYMBOL    REG       ---     ---   m
      C00C12H     BLOCK     LVL=1     04CEH   ---   
      00004FH     SYMBOL    REG       ---     ---   numPdo
      000000H     SYMBOL    AUTO      ---     ---   numMap
      000002H     SYMBOL    AUTO      ---     ---   pMappingCount
      000004H     SYMBOL    AUTO      ---     ---   pMappingParameter
      000006H     SYMBOL    AUTO      ---     ---   pTransmissionType
      000008H     SYMBOL    AUTO      ---     ---   pwCobId
      00000AH     SYMBOL    AUTO      ---     ---   Size
      00000CH     SYMBOL    AUTO      ---     ---   offset
      00000EH     SYMBOL    AUTO      ---     ---   status
      000010H     SYMBOL    AUTO      ---     ---   objDict
      000014H     SYMBOL    AUTO      ---     ---   offsetObjdict
      000016H     SYMBOL    AUTO      ---     ---   lastIndex
      C00CFAH     BLOCK     LVL=2     014AH   ---   
      000018H     SYMBOL    AUTO      ---     ---   tmp
      000020H     SYMBOL    AUTO      ---     ---   ByteSize
      ---         BLOCKEND  LVL=2     ---     ---   
      C00E56H     BLOCK     LVL=2     0080H   ---   
      000018H     SYMBOL    AUTO      ---     ---   EventTimerDuration
      ---         BLOCKEND  LVL=2     ---     ---   
      C010A2H     BLOCK     LVL=2     002EH   ---   
      000018H     SYMBOL    AUTO      ---     ---   pdo
      ---         BLOCKEND  LVL=2     ---     ---   
      ---         BLOCKEND  LVL=1     ---     ---   
      C00C04H     LINE      ---       ---     ---   #170
      C00C12H     LINE      ---       ---     ---   #171
      C00C12H     LINE      ---       ---     ---   #174
      C00C18H     LINE      ---       ---     ---   #179
      C00C1CH     LINE      ---       ---     ---   #180
      C00C20H     LINE      ---       ---     ---   #182
      C00C24H     LINE      ---       ---     ---   #190
      C00C2AH     LINE      ---       ---     ---   #193
      C00C30H     LINE      ---       ---     ---   #194
      C00C32H     LINE      ---       ---     ---   #195
      C00C34H     LINE      ---       ---     ---   #196
      C00C3CH     LINE      ---       ---     ---   #198
      C00C48H     LINE      ---       ---     ---   #199
      C00C54H     LINE      ---       ---     ---   #201
      C00C5AH     LINE      ---       ---     ---   #202
      C00C5EH     LINE      ---       ---     ---   #204
      C00C6CH     LINE      ---       ---     ---   #207
      C00C6CH     LINE      ---       ---     ---   #208
      C00C88H     LINE      ---       ---     ---   #209
      C00C92H     LINE      ---       ---     ---   #212
      C00C98H     LINE      ---       ---     ---   #215
      C00C9CH     LINE      ---       ---     ---   #216
      C00C9CH     LINE      ---       ---     ---   #220
      C00C9EH     LINE      ---       ---     ---   #221
      C00CA8H     LINE      ---       ---     ---   #222
      C00CAEH     LINE      ---       ---     ---   #223
      C00CB2H     LINE      ---       ---     ---   #224
      C00CB2H     LINE      ---       ---     ---   #226
      C00CB2H     LINE      ---       ---     ---   #229
      C00CBEH     LINE      ---       ---     ---   #230
L166 LINKER/LOCATER V5.25                                                             09/03/2014  17:57:06  PAGE 45


      C00CCAH     LINE      ---       ---     ---   #233
      C00CF2H     LINE      ---       ---     ---   #234
      C00CF6H     LINE      ---       ---     ---   #235
      C00CFAH     LINE      ---       ---     ---   #236
      C00CFAH     LINE      ---       ---     ---   #237
      C00D0EH     LINE      ---       ---     ---   #241
      C00D3EH     LINE      ---       ---     ---   #242
      C00D44H     LINE      ---       ---     ---   #246
      C00D4CH     LINE      ---       ---     ---   #247
      C00D4CH     LINE      ---       ---     ---   #255
      C00D5EH     LINE      ---       ---     ---   #259
      C00D7EH     LINE      ---       ---     ---   #263
      C00DBAH     LINE      ---       ---     ---   #265
      C00DD2H     LINE      ---       ---     ---   #270
      C00E1CH     LINE      ---       ---     ---   #272
      C00E28H     LINE      ---       ---     ---   #281
      C00E30H     LINE      ---       ---     ---   #282
      C00E30H     LINE      ---       ---     ---   #291
      C00E3EH     LINE      ---       ---     ---   #292
      C00E3EH     LINE      ---       ---     ---   #293
      C00E44H     LINE      ---       ---     ---   #294
      C00E50H     LINE      ---       ---     ---   #295
      C00E56H     LINE      ---       ---     ---   #296
      C00E56H     LINE      ---       ---     ---   #297
      C00E7AH     LINE      ---       ---     ---   #298
      C00E86H     LINE      ---       ---     ---   #299
      C00E98H     LINE      ---       ---     ---   #301
      C00ED6H     LINE      ---       ---     ---   #302
      C00ED6H     LINE      ---       ---     ---   #304
      C00EDCH     LINE      ---       ---     ---   #306
      C00EDCH     LINE      ---       ---     ---   #307
      C00EEEH     LINE      ---       ---     ---   #309
      C00EF8H     LINE      ---       ---     ---   #312
      C00EFEH     LINE      ---       ---     ---   #313
      C00F0AH     LINE      ---       ---     ---   #314
      C00F16H     LINE      ---       ---     ---   #315
      C00F1CH     LINE      ---       ---     ---   #316
      C00F20H     LINE      ---       ---     ---   #320
      C00F34H     LINE      ---       ---     ---   #323
      C00F34H     LINE      ---       ---     ---   #328
      C00F50H     LINE      ---       ---     ---   #329
      C00F5AH     LINE      ---       ---     ---   #331
      C00F60H     LINE      ---       ---     ---   #332
      C00F64H     LINE      ---       ---     ---   #333
      C00F64H     LINE      ---       ---     ---   #336
      C00F66H     LINE      ---       ---     ---   #337
      C00F70H     LINE      ---       ---     ---   #338
      C00F70H     LINE      ---       ---     ---   #339
      C00F76H     LINE      ---       ---     ---   #340
      C00F7AH     LINE      ---       ---     ---   #343
      C00F7AH     LINE      ---       ---     ---   #345
      C00F96H     LINE      ---       ---     ---   #347
      C00FA2H     LINE      ---       ---     ---   #349
      C00FA8H     LINE      ---       ---     ---   #350
      C00FACH     LINE      ---       ---     ---   #351
      C00FACH     LINE      ---       ---     ---   #353
      C00FB8H     LINE      ---       ---     ---   #355
L166 LINKER/LOCATER V5.25                                                             09/03/2014  17:57:06  PAGE 46


      C00FD0H     LINE      ---       ---     ---   #360
      C00FEEH     LINE      ---       ---     ---   #361
      C00FF2H     LINE      ---       ---     ---   #362
      C00FF2H     LINE      ---       ---     ---   #370
      C00FF8H     LINE      ---       ---     ---   #371
      C00FF8H     LINE      ---       ---     ---   #372
      C00FFAH     LINE      ---       ---     ---   #373
      C00FFAH     LINE      ---       ---     ---   #374
      C01012H     LINE      ---       ---     ---   #379
      C01042H     LINE      ---       ---     ---   #381
      C01072H     LINE      ---       ---     ---   #383
      C0108CH     LINE      ---       ---     ---   #386
      C01098H     LINE      ---       ---     ---   #387
      C0109CH     LINE      ---       ---     ---   #388
      C0109CH     LINE      ---       ---     ---   #395
      C010A2H     LINE      ---       ---     ---   #396
      C010A2H     LINE      ---       ---     ---   #398
      C010A2H     LINE      ---       ---     ---   #399
      C010A2H     LINE      ---       ---     ---   #401
      C010B6H     LINE      ---       ---     ---   #404
      C010BCH     LINE      ---       ---     ---   #405
      C010BCH     LINE      ---       ---     ---   #406
      C010CCH     LINE      ---       ---     ---   #407
      C010D0H     LINE      ---       ---     ---   #409
      C010D0H     LINE      ---       ---     ---   #410
      C010DEH     LINE      ---       ---     ---   #413
      C010E0H     LINE      ---       ---     ---   #414
      ---         BLOCKEND  LVL=0     ---     ---   

      C010ECH     BLOCK     LVL=0     00C0H   ---   CopyBits
      000048H     SYMBOL    REG       ---     ---   NbBits
      000009H     SYMBOL    REG       ---     ---   SrcByteIndex
      00004AH     SYMBOL    REG       ---     ---   SrcBitIndex
      00004BH     SYMBOL    REG       ---     ---   SrcBigEndian
      00000CH     SYMBOL    REG       ---     ---   DestByteIndex
      00008EH     SYMBOL    REG       ---     ---   DestBitIndex
      000002H     SYMBOL    AUTO      ---     ---   DestBigEndian
      C010F2H     BLOCK     LVL=1     00B0H   ---   
      00008CH     SYMBOL    REG       ---     ---   Vect
      00004DH     SYMBOL    REG       ---     ---   Aligned
      000084H     SYMBOL    REG       ---     ---   BoudaryLimit
      000082H     SYMBOL    REG       ---     ---   BitsToCopy
      000084H     SYMBOL    REG       ---     ---   Mask
      000086H     SYMBOL    REG       ---     ---   Filtered
      ---         BLOCKEND  LVL=1     ---     ---   
      C010ECH     LINE      ---       ---     ---   #428
      C010F0H     LINE      ---       ---     ---   #435
      C010F2H     LINE      ---       ---     ---   #436
      C010F2H     LINE      ---       ---     ---   #438
      C010FCH     LINE      ---       ---     ---   #442
      C01116H     LINE      ---       ---     ---   #445
      C0112EH     LINE      ---       ---     ---   #446
      C0113AH     LINE      ---       ---     ---   #451
      C01156H     LINE      ---       ---     ---   #454
      C0115CH     LINE      ---       ---     ---   #457
      C01164H     LINE      ---       ---     ---   #460
      C0116CH     LINE      ---       ---     ---   #463
L166 LINKER/LOCATER V5.25                                                             09/03/2014  17:57:06  PAGE 47


      C01176H     LINE      ---       ---     ---   #465
      C01178H     LINE      ---       ---     ---   #466
      C01188H     LINE      ---       ---     ---   #467
      C01188H     LINE      ---       ---     ---   #471
      C0118EH     LINE      ---       ---     ---   #473
      C01190H     LINE      ---       ---     ---   #474
      C011A0H     LINE      ---       ---     ---   #475
      C011A0H     LINE      ---       ---     ---   #478
      C011A2H     LINE      ---       ---     ---   #479
      C011A8H     LINE      ---       ---     ---   #481
      ---         BLOCKEND  LVL=0     ---     ---   

      C011ACH     BLOCK     LVL=0     0030H   ---   sendPdo
      000008H     SYMBOL    REG       ---     ---   d
      000009H     SYMBOL    REG       ---     ---   pdoNum
      00000BH     SYMBOL    REG       ---     ---   pdo
      C011ACH     LINE      ---       ---     ---   #483
      C011ACH     LINE      ---       ---     ---   #486
      C011CEH     LINE      ---       ---     ---   #490
      C011DAH     LINE      ---       ---     ---   #491
      ---         BLOCKEND  LVL=0     ---     ---   

      C011DCH     BLOCK     LVL=0     000AH   ---   sendPDOevent
      000004H     SYMBOL    REG       ---     ---   d
      C011DCH     LINE      ---       ---     ---   #503
      C011DEH     LINE      ---       ---     ---   #506
      C011E4H     LINE      ---       ---     ---   #507
      ---         BLOCKEND  LVL=0     ---     ---   

      C011E6H     BLOCK     LVL=0     01EAH   ---   sendOnePDOevent
      00000DH     SYMBOL    REG       ---     ---   d
      00004EH     SYMBOL    REG       ---     ---   pdoNum
      C011F4H     BLOCK     LVL=1     01D0H   ---   
      00000FH     SYMBOL    REG       ---     ---   offsetObjdict
      000000H     SYMBOL    AUTO      ---     ---   pdo
      C01290H     BLOCK     LVL=2     0132H   ---   
      00000CH     SYMBOL    AUTO      ---     ---   EventTimerDuration
      000010H     SYMBOL    AUTO      ---     ---   InhibitTimerDuration
      ---         BLOCKEND  LVL=2     ---     ---   
      ---         BLOCKEND  LVL=1     ---     ---   
      C011E6H     LINE      ---       ---     ---   #510
      C011F4H     LINE      ---       ---     ---   #511
      C011F4H     LINE      ---       ---     ---   #514
      C01212H     LINE      ---       ---     ---   #517
      C01218H     LINE      ---       ---     ---   #518
      C01218H     LINE      ---       ---     ---   #520
      C01226H     LINE      ---       ---     ---   #525
      C01238H     LINE      ---       ---     ---   #526
      C01248H     LINE      ---       ---     ---   #530
      C0124EH     LINE      ---       ---     ---   #531
      C0124EH     LINE      ---       ---     ---   #534
      C0128AH     LINE      ---       ---     ---   #541
      C01290H     LINE      ---       ---     ---   #542
      C01290H     LINE      ---       ---     ---   #544
      C01290H     LINE      ---       ---     ---   #553
      C012B4H     LINE      ---       ---     ---   #556
      C012C2H     LINE      ---       ---     ---   #559
L166 LINKER/LOCATER V5.25                                                             09/03/2014  17:57:06  PAGE 48


      C012C6H     LINE      ---       ---     ---   #561
      C012E0H     LINE      ---       ---     ---   #564
      C01326H     LINE      ---       ---     ---   #565
      C01326H     LINE      ---       ---     ---   #567
      C01332H     LINE      ---       ---     ---   #569
      C0134CH     LINE      ---       ---     ---   #573
      C0139CH     LINE      ---       ---     ---   #576
      C013B4H     LINE      ---       ---     ---   #577
      C013B4H     LINE      ---       ---     ---   #579
      C013C2H     LINE      ---       ---     ---   #580
      C013C2H     LINE      ---       ---     ---   #581
      C013C4H     LINE      ---       ---     ---   #582
      ---         BLOCKEND  LVL=0     ---     ---   

      C013D0H     BLOCK     LVL=0     0048H   ---   PDOEventTimerAlarm
      00000BH     SYMBOL    REG       ---     ---   d
      000009H     SYMBOL    REG       ---     ---   pdoNum
      C013D0H     LINE      ---       ---     ---   #585
      C013D2H     LINE      ---       ---     ---   #588
      C013F0H     LINE      ---       ---     ---   #590
      C0140CH     LINE      ---       ---     ---   #591
      C01416H     LINE      ---       ---     ---   #592
      ---         BLOCKEND  LVL=0     ---     ---   

      C01418H     BLOCK     LVL=0     0048H   ---   PDOInhibitTimerAlarm
      00000BH     SYMBOL    REG       ---     ---   d
      000009H     SYMBOL    REG       ---     ---   pdoNum
      C01418H     LINE      ---       ---     ---   #595
      C0141AH     LINE      ---       ---     ---   #598
      C01438H     LINE      ---       ---     ---   #600
      C01454H     LINE      ---       ---     ---   #601
      C0145EH     LINE      ---       ---     ---   #602
      ---         BLOCKEND  LVL=0     ---     ---   

      C01460H     BLOCK     LVL=0     0002H   ---   _RxPDO_EventTimers_Handler
      000008H     SYMBOL    REG       ---     ---   d
      000009H     SYMBOL    REG       ---     ---   pdoNum
      C01460H     LINE      ---       ---     ---   #605
      C01460H     LINE      ---       ---     ---   #607
      ---         BLOCKEND  LVL=0     ---     ---   

      C01462H     BLOCK     LVL=0     0266H   ---   _sendPDOevent
      00000DH     SYMBOL    REG       ---     ---   d
      00004EH     SYMBOL    REG       ---     ---   isSyncEvent
      C01470H     BLOCK     LVL=1     024CH   ---   
      00004FH     SYMBOL    REG       ---     ---   pdoNum
      000000H     SYMBOL    AUTO      ---     ---   pTransmissionType
      000002H     SYMBOL    AUTO      ---     ---   status
      000004H     SYMBOL    AUTO      ---     ---   offsetObjdict
      000006H     SYMBOL    AUTO      ---     ---   offsetObjdictMap
      000008H     SYMBOL    AUTO      ---     ---   lastIndex
      C014AEH     BLOCK     LVL=2     020CH   ---   
      00000AH     SYMBOL    AUTO      ---     ---   pdo
      ---         BLOCKEND  LVL=2     ---     ---   
      ---         BLOCKEND  LVL=1     ---     ---   
      C01462H     LINE      ---       ---     ---   #619
      C01470H     LINE      ---       ---     ---   #620
L166 LINKER/LOCATER V5.25                                                             09/03/2014  17:57:06  PAGE 49


      C01470H     LINE      ---       ---     ---   #621
      C01472H     LINE      ---       ---     ---   #622
      C01474H     LINE      ---       ---     ---   #623
      C0147AH     LINE      ---       ---     ---   #624
      C01486H     LINE      ---       ---     ---   #625
      C0148EH     LINE      ---       ---     ---   #626
      C0149AH     LINE      ---       ---     ---   #628
      C014A0H     LINE      ---       ---     ---   #630
      C014A6H     LINE      ---       ---     ---   #631
      C014A6H     LINE      ---       ---     ---   #635
      C014AEH     LINE      ---       ---     ---   #636
      C014AEH     LINE      ---       ---     ---   #638
      C014C2H     LINE      ---       ---     ---   #639
      C014C6H     LINE      ---       ---     ---   #641
      C014DEH     LINE      ---       ---     ---   #643
      C014DEH     LINE      ---       ---     ---   #644
      C014FEH     LINE      ---       ---     ---   #652
      C01504H     LINE      ---       ---     ---   #653
      C01508H     LINE      ---       ---     ---   #654
      C01508H     LINE      ---       ---     ---   #657
      C01522H     LINE      ---       ---     ---   #662
      C01558H     LINE      ---       ---     ---   #669
      C0156EH     LINE      ---       ---     ---   #672
      C01582H     LINE      ---       ---     ---   #677
      C01594H     LINE      ---       ---     ---   #681
      C0159AH     LINE      ---       ---     ---   #682
      C0159EH     LINE      ---       ---     ---   #683
      C0159EH     LINE      ---       ---     ---   #684
      C015A4H     LINE      ---       ---     ---   #686
      C015A8H     LINE      ---       ---     ---   #687
      C015B8H     LINE      ---       ---     ---   #689
      C015DAH     LINE      ---       ---     ---   #695
      C015F4H     LINE      ---       ---     ---   #696
      C015F6H     LINE      ---       ---     ---   #700
      C0160EH     LINE      ---       ---     ---   #701
      C0160EH     LINE      ---       ---     ---   #702
      C01614H     LINE      ---       ---     ---   #703
      C01616H     LINE      ---       ---     ---   #705
      C01616H     LINE      ---       ---     ---   #707
      C01656H     LINE      ---       ---     ---   #712
      C01660H     LINE      ---       ---     ---   #713
      C01666H     LINE      ---       ---     ---   #714
      C01668H     LINE      ---       ---     ---   #720
      C0166EH     LINE      ---       ---     ---   #721
      C0166EH     LINE      ---       ---     ---   #722
      C01670H     LINE      ---       ---     ---   #723
      C01670H     LINE      ---       ---     ---   #724
      C01680H     LINE      ---       ---     ---   #725
      C01686H     LINE      ---       ---     ---   #726
      C01688H     LINE      ---       ---     ---   #727
      C01688H     LINE      ---       ---     ---   #728
      C0168AH     LINE      ---       ---     ---   #729
      C01694H     LINE      ---       ---     ---   #730
      C0169EH     LINE      ---       ---     ---   #732
      C016A4H     LINE      ---       ---     ---   #733
      C016A6H     LINE      ---       ---     ---   #735
      C016A6H     LINE      ---       ---     ---   #737
L166 LINKER/LOCATER V5.25                                                             09/03/2014  17:57:06  PAGE 50


      C016ACH     LINE      ---       ---     ---   #738
      C016ACH     LINE      ---       ---     ---   #740
      C016BAH     LINE      ---       ---     ---   #741
      C016BAH     LINE      ---       ---     ---   #742
      C016BCH     LINE      ---       ---     ---   #743
      ---         BLOCKEND  LVL=0     ---     ---   

      C016C8H     BLOCK     LVL=0     00D4H   ---   TPDO_Communication_Parameter_Callback
      00000DH     SYMBOL    REG       ---     ---   d
      000009H     SYMBOL    REG       ---     ---   OD_entry
      00004AH     SYMBOL    REG       ---     ---   bSubindex
      C016E2H     BLOCK     LVL=1     00B0H   ---   
      000004H     SYMBOL    REG       ---     ---   TPDO_com
      00004EH     SYMBOL    REG       ---     ---   numPdo
      ---         BLOCKEND  LVL=1     ---     ---   
      C016C8H     LINE      ---       ---     ---   #755
      C016CEH     LINE      ---       ---     ---   #760
      C016D4H     LINE      ---       ---     ---   #761
      C016E2H     LINE      ---       ---     ---   #763
      C016E2H     LINE      ---       ---     ---   #764
      C016E2H     LINE      ---       ---     ---   #765
      C016E2H     LINE      ---       ---     ---   #766
      C016E2H     LINE      ---       ---     ---   #767
      C016F8H     LINE      ---       ---     ---   #768
      C0170AH     LINE      ---       ---     ---   #772
      C0173AH     LINE      ---       ---     ---   #774
      C0176AH     LINE      ---       ---     ---   #775
      C01780H     LINE      ---       ---     ---   #777
      C0178CH     LINE      ---       ---     ---   #778
      C01792H     LINE      ---       ---     ---   #781
      C01792H     LINE      ---       ---     ---   #782
      C01792H     LINE      ---       ---     ---   #783
      C01792H     LINE      ---       ---     ---   #784
      C01796H     LINE      ---       ---     ---   #785
      ---         BLOCKEND  LVL=0     ---     ---   

      C0179CH     BLOCK     LVL=0     0080H   ---   PDOInit
      00000DH     SYMBOL    REG       ---     ---   d
      C017A8H     BLOCK     LVL=1     0068H   ---   
      00000FH     SYMBOL    REG       ---     ---   pdoIndex
      00000EH     SYMBOL    REG       ---     ---   offsetObjdict
      000000H     SYMBOL    AUTO      ---     ---   lastIndex
      C017C4H     BLOCK     LVL=2     003EH   ---   
      000002H     SYMBOL    AUTO      ---     ---   errorCode
      000006H     SYMBOL    AUTO      ---     ---   CallbackList
      ---         BLOCKEND  LVL=2     ---     ---   
      ---         BLOCKEND  LVL=1     ---     ---   
      C0179CH     LINE      ---       ---     ---   #788
      C017A8H     LINE      ---       ---     ---   #789
      C017A8H     LINE      ---       ---     ---   #791
      C017ACH     LINE      ---       ---     ---   #793
      C017B4H     LINE      ---       ---     ---   #794
      C017BEH     LINE      ---       ---     ---   #795
      C017C2H     LINE      ---       ---     ---   #796
      C017C4H     LINE      ---       ---     ---   #797
      C017C4H     LINE      ---       ---     ---   #802
      C017D4H     LINE      ---       ---     ---   #803
L166 LINKER/LOCATER V5.25                                                             09/03/2014  17:57:06  PAGE 51


      C017E6H     LINE      ---       ---     ---   #807
      C017EEH     LINE      ---       ---     ---   #809
      C017F6H     LINE      ---       ---     ---   #811
      C017FEH     LINE      ---       ---     ---   #812
      C017FEH     LINE      ---       ---     ---   #813
      C01800H     LINE      ---       ---     ---   #814
      C01802H     LINE      ---       ---     ---   #815
      C01808H     LINE      ---       ---     ---   #818
      C01810H     LINE      ---       ---     ---   #819
      ---         BLOCKEND  LVL=0     ---     ---   

      C0181CH     BLOCK     LVL=0     00C6H   ---   PDOStop
      00000DH     SYMBOL    REG       ---     ---   d
      C01826H     BLOCK     LVL=1     00B2H   ---   
      00004EH     SYMBOL    REG       ---     ---   pdoNum
      00000FH     SYMBOL    REG       ---     ---   offsetObjdict
      000000H     SYMBOL    AUTO      ---     ---   lastIndex
      ---         BLOCKEND  LVL=1     ---     ---   
      C0181CH     LINE      ---       ---     ---   #822
      C01826H     LINE      ---       ---     ---   #823
      C01826H     LINE      ---       ---     ---   #825
      C01828H     LINE      ---       ---     ---   #826
      C01830H     LINE      ---       ---     ---   #827
      C0183AH     LINE      ---       ---     ---   #828
      C0183EH     LINE      ---       ---     ---   #829
      C01840H     LINE      ---       ---     ---   #833
      C01870H     LINE      ---       ---     ---   #835
      C018A0H     LINE      ---       ---     ---   #837
      C018B6H     LINE      ---       ---     ---   #838
      C018CEH     LINE      ---       ---     ---   #839
      C018D0H     LINE      ---       ---     ---   #840
      C018D2H     LINE      ---       ---     ---   #841
      ---         BLOCKEND  LVL=0     ---     ---   
      C02760H     PUBLIC    LABEL     ---     ---   switchCommunicationState
      C0280AH     PUBLIC    LABEL     ---     ---   getNodeId
      C026B6H     PUBLIC    LABEL     ---     ---   canDispatch
      C02A76H     PUBLIC    LABEL     ---     ---   _stopped
      C027A2H     PUBLIC    LABEL     ---     ---   setState
      C02A5CH     PUBLIC    LABEL     ---     ---   _initialisation
      C026B0H     PUBLIC    LABEL     ---     ---   getState
      C02A5EH     PUBLIC    LABEL     ---     ---   _preOperational
      C02A74H     PUBLIC    LABEL     ---     ---   _operational
      C02810H     PUBLIC    LABEL     ---     ---   setNodeId
      C040B0H     SYMBOL    VAR       ---     ---   ?tpl?0003
      C040C0H     SYMBOL    VAR       ---     ---   ?tpl?0002
      C040D0H     SYMBOL    VAR       ---     ---   ?tpl?0001

      C026B0H     BLOCK     LVL=0     0006H   ---   getState
      000008H     SYMBOL    REG       ---     ---   d
      C026B0H     LINE      ---       ---     ---   #52
      C026B0H     LINE      ---       ---     ---   #54
      C026B4H     LINE      ---       ---     ---   #55
      ---         BLOCKEND  LVL=0     ---     ---   

      C026B6H     BLOCK     LVL=0     00AAH   ---   canDispatch
      00000DH     SYMBOL    REG       ---     ---   d
      00000EH     SYMBOL    REG       ---     ---   m
L166 LINKER/LOCATER V5.25                                                             09/03/2014  17:57:06  PAGE 52


      C026BEH     BLOCK     LVL=1     009CH   ---   
      000005H     SYMBOL    REG       ---     ---   cob_id
      ---         BLOCKEND  LVL=1     ---     ---   
      C026B6H     LINE      ---       ---     ---   #63
      C026BEH     LINE      ---       ---     ---   #64
      C026BEH     LINE      ---       ---     ---   #65
      C026C0H     LINE      ---       ---     ---   #66
      C02706H     LINE      ---       ---     ---   #68
      C02706H     LINE      ---       ---     ---   #69
      C0270CH     LINE      ---       ---     ---   #71
      C02712H     LINE      ---       ---     ---   #72
      C02718H     LINE      ---       ---     ---   #73
      C0271AH     LINE      ---       ---     ---   #74
      C02720H     LINE      ---       ---     ---   #75
      C02728H     LINE      ---       ---     ---   #76
      C0272AH     LINE      ---       ---     ---   #78
      C0272AH     LINE      ---       ---     ---   #79
      C0272AH     LINE      ---       ---     ---   #80
      C0272AH     LINE      ---       ---     ---   #81
      C0272AH     LINE      ---       ---     ---   #82
      C0272AH     LINE      ---       ---     ---   #83
      C0272AH     LINE      ---       ---     ---   #84
      C0272AH     LINE      ---       ---     ---   #85
      C0272AH     LINE      ---       ---     ---   #86
      C02730H     LINE      ---       ---     ---   #87
      C02738H     LINE      ---       ---     ---   #88
      C0273AH     LINE      ---       ---     ---   #89
      C0273AH     LINE      ---       ---     ---   #90
      C0273AH     LINE      ---       ---     ---   #91
      C02740H     LINE      ---       ---     ---   #92
      C02748H     LINE      ---       ---     ---   #93
      C0274AH     LINE      ---       ---     ---   #94
      C0274AH     LINE      ---       ---     ---   #97
      C0274AH     LINE      ---       ---     ---   #98
      C0274AH     LINE      ---       ---     ---   #99
      C02752H     LINE      ---       ---     ---   #101
      C0275AH     LINE      ---       ---     ---   #102
      C0275AH     LINE      ---       ---     ---   #103
      C0275AH     LINE      ---       ---     ---   #117
      C0275AH     LINE      ---       ---     ---   #118
      ---         BLOCKEND  LVL=0     ---     ---   

      C02760H     BLOCK     LVL=0     0042H   ---   switchCommunicationState
      00000DH     SYMBOL    REG       ---     ---   d
      00000EH     SYMBOL    REG       ---     ---   newCommunicationState
      C02760H     LINE      ---       ---     ---   #138
      C02768H     LINE      ---       ---     ---   #147
      ---         BLOCKEND  LVL=0     ---     ---   

      C027A2H     BLOCK     LVL=0     0068H   ---   setState
      00000DH     SYMBOL    REG       ---     ---   d
      000009H     SYMBOL    REG       ---     ---   newState
      C027D2H     BLOCK     LVL=1     0024H   ---   
      000000H     SYMBOL    AUTO      ---     ---   newCommunicationState
      ---         BLOCKEND  LVL=1     ---     ---   
      C027A2H     LINE      ---       ---     ---   #159
      C027AAH     LINE      ---       ---     ---   #161
L166 LINKER/LOCATER V5.25                                                             09/03/2014  17:57:06  PAGE 53


      C027B2H     LINE      ---       ---     ---   #162
      C027C8H     LINE      ---       ---     ---   #163
      C027C8H     LINE      ---       ---     ---   #178
      C027C8H     LINE      ---       ---     ---   #186
      C027C8H     LINE      ---       ---     ---   #188
      C027C8H     LINE      ---       ---     ---   #189
      C027D2H     LINE      ---       ---     ---   #190
      C027D2H     LINE      ---       ---     ---   #191
      C027E2H     LINE      ---       ---     ---   #192
      C027E8H     LINE      ---       ---     ---   #193
      C027E8H     LINE      ---       ---     ---   #194
      C027EEH     LINE      ---       ---     ---   #195
      C027F6H     LINE      ---       ---     ---   #197
      C027F8H     LINE      ---       ---     ---   #199
      C027F8H     LINE      ---       ---     ---   #208
      C027F8H     LINE      ---       ---     ---   #209
      C027F8H     LINE      ---       ---     ---   #210
      C027FEH     LINE      ---       ---     ---   #212
      C027FEH     LINE      ---       ---     ---   #214
      C027FEH     LINE      ---       ---     ---   #217
      C02802H     LINE      ---       ---     ---   #218
      ---         BLOCKEND  LVL=0     ---     ---   

      C0280AH     BLOCK     LVL=0     0006H   ---   getNodeId
      000008H     SYMBOL    REG       ---     ---   d
      C0280AH     LINE      ---       ---     ---   #227
      C0280AH     LINE      ---       ---     ---   #229
      C0280EH     LINE      ---       ---     ---   #230
      ---         BLOCKEND  LVL=0     ---     ---   

      C02810H     BLOCK     LVL=0     024CH   ---   setNodeId
      00000AH     SYMBOL    REG       ---     ---   d
      000084H     SYMBOL    REG       ---     ---   nodeId
      C0281AH     BLOCK     LVL=1     023AH   ---   
      00000BH     SYMBOL    REG       ---     ---   offset
      C028CCH     BLOCK     LVL=2     00A8H   ---   
      00004CH     SYMBOL    REG       ---     ---   i
      00000BH     SYMBOL    REG       ---     ---   offset
      00000DH     SYMBOL    REG       ---     ---   lastIndex
      000000H     SYMBOL    AUTO      ---     ---   cobID
      ---         BLOCKEND  LVL=2     ---     ---   
      C02974H     BLOCK     LVL=2     00AAH   ---   
      00004CH     SYMBOL    REG       ---     ---   i
      00000BH     SYMBOL    REG       ---     ---   offset
      00000DH     SYMBOL    REG       ---     ---   lastIndex
      000000H     SYMBOL    AUTO      ---     ---   cobID
      ---         BLOCKEND  LVL=2     ---     ---   
      ---         BLOCKEND  LVL=1     ---     ---   
      C02810H     LINE      ---       ---     ---   #238
      C0281AH     LINE      ---       ---     ---   #239
      C0281AH     LINE      ---       ---     ---   #240
      C02820H     LINE      ---       ---     ---   #250
      C0282CH     LINE      ---       ---     ---   #252
      C02830H     LINE      ---       ---     ---   #253
      C02830H     LINE      ---       ---     ---   #255
      C02834H     LINE      ---       ---     ---   #257
      C02868H     LINE      ---       ---     ---   #259
L166 LINKER/LOCATER V5.25                                                             09/03/2014  17:57:06  PAGE 54


      C02880H     LINE      ---       ---     ---   #260
      C02880H     LINE      ---       ---     ---   #262
      C028B4H     LINE      ---       ---     ---   #264
      C028CCH     LINE      ---       ---     ---   #265
      C028CCH     LINE      ---       ---     ---   #276
      C028CCH     LINE      ---       ---     ---   #277
      C028CEH     LINE      ---       ---     ---   #278
      C028D6H     LINE      ---       ---     ---   #279
      C028DEH     LINE      ---       ---     ---   #280
      C028F0H     LINE      ---       ---     ---   #281
      C028F6H     LINE      ---       ---     ---   #282
      C02936H     LINE      ---       ---     ---   #283
      C02966H     LINE      ---       ---     ---   #284
      C02968H     LINE      ---       ---     ---   #285
      C0296AH     LINE      ---       ---     ---   #286
      C02974H     LINE      ---       ---     ---   #289
      C02974H     LINE      ---       ---     ---   #290
      C02976H     LINE      ---       ---     ---   #291
      C0297EH     LINE      ---       ---     ---   #292
      C02986H     LINE      ---       ---     ---   #293
      C02998H     LINE      ---       ---     ---   #294
      C0299AH     LINE      ---       ---     ---   #295
      C029A0H     LINE      ---       ---     ---   #296
      C029E0H     LINE      ---       ---     ---   #297
      C02A10H     LINE      ---       ---     ---   #298
      C02A12H     LINE      ---       ---     ---   #299
      C02A14H     LINE      ---       ---     ---   #300
      C02A1EH     LINE      ---       ---     ---   #304
      C02A42H     LINE      ---       ---     ---   #305
      C02A50H     LINE      ---       ---     ---   #308
      C02A54H     LINE      ---       ---     ---   #309
      ---         BLOCKEND  LVL=0     ---     ---   

      C02A5CH     BLOCK     LVL=0     0002H   ---   _initialisation
      000008H     SYMBOL    REG       ---     ---   d
      C02A5CH     LINE      ---       ---     ---   #311
      ---         BLOCKEND  LVL=0     ---     ---   

      C02A5EH     BLOCK     LVL=0     0016H   ---   _preOperational
      000005H     SYMBOL    REG       ---     ---   d
      C02A5EH     LINE      ---       ---     ---   #312
      C02A60H     LINE      ---       ---     ---   #313
      C02A68H     LINE      ---       ---     ---   #315
      C02A72H     LINE      ---       ---     ---   #316
      ---         BLOCKEND  LVL=0     ---     ---   

      C02A74H     BLOCK     LVL=0     0002H   ---   _operational
      000008H     SYMBOL    REG       ---     ---   d
      C02A74H     LINE      ---       ---     ---   #318
      ---         BLOCKEND  LVL=0     ---     ---   

      C02A76H     BLOCK     LVL=0     0002H   ---   _stopped
      000008H     SYMBOL    REG       ---     ---   d
      C02A76H     LINE      ---       ---     ---   #319
      ---         BLOCKEND  LVL=0     ---     ---   
      C0375EH     PUBLIC    LABEL     ---     ---   startSYNC
      C03832H     PUBLIC    LABEL     ---     ---   sendSYNC
L166 LINKER/LOCATER V5.25                                                             09/03/2014  17:57:06  PAGE 55


      C03754H     PUBLIC    LABEL     ---     ---   OnCOB_ID_SyncUpdate
      C03878H     PUBLIC    LABEL     ---     ---   _post_sync
      C0387AH     PUBLIC    LABEL     ---     ---   _post_TPDO
      C0380AH     PUBLIC    LABEL     ---     ---   sendSYNCMessage
      C03848H     PUBLIC    LABEL     ---     ---   proceedSYNC
      C0374EH     PUBLIC    LABEL     ---     ---   SyncAlarm
      C037DCH     PUBLIC    LABEL     ---     ---   stopSYNC

      C0374EH     BLOCK     LVL=0     0006H   ---   SyncAlarm
      000004H     SYMBOL    REG       ---     ---   d
      000009H     SYMBOL    REG       ---     ---   id
      C0374EH     LINE      ---       ---     ---   #62
      C03750H     LINE      ---       ---     ---   #64
      C03752H     LINE      ---       ---     ---   #65
      ---         BLOCKEND  LVL=0     ---     ---   

      C03754H     BLOCK     LVL=0     000AH   ---   OnCOB_ID_SyncUpdate
      000004H     SYMBOL    REG       ---     ---   d
      000009H     SYMBOL    REG       ---     ---   unsused_indextable
      00004AH     SYMBOL    REG       ---     ---   unsused_bSubindex
      C03754H     LINE      ---       ---     ---   #76
      C03756H     LINE      ---       ---     ---   #78
      C03758H     LINE      ---       ---     ---   #79
      C0375CH     LINE      ---       ---     ---   #80
      ---         BLOCKEND  LVL=0     ---     ---   

      C0375EH     BLOCK     LVL=0     007EH   ---   startSYNC
      00000DH     SYMBOL    REG       ---     ---   d
      C0375EH     LINE      ---       ---     ---   #87
      C03762H     LINE      ---       ---     ---   #89
      C0376CH     LINE      ---       ---     ---   #90
      C0376EH     LINE      ---       ---     ---   #91
      C0376EH     LINE      ---       ---     ---   #93
      C0377EH     LINE      ---       ---     ---   #94
      C0378EH     LINE      ---       ---     ---   #96
      C037AAH     LINE      ---       ---     ---   #103
      C037D8H     LINE      ---       ---     ---   #104
      ---         BLOCKEND  LVL=0     ---     ---   

      C037DCH     BLOCK     LVL=0     002EH   ---   stopSYNC
      00000DH     SYMBOL    REG       ---     ---   d
      C037DCH     LINE      ---       ---     ---   #112
      C037E0H     LINE      ---       ---     ---   #114
      C037ECH     LINE      ---       ---     ---   #115
      C037FAH     LINE      ---       ---     ---   #116
      C03806H     LINE      ---       ---     ---   #117
      ---         BLOCKEND  LVL=0     ---     ---   

      C0380AH     BLOCK     LVL=0     0028H   ---   sendSYNCMessage
      000008H     SYMBOL    REG       ---     ---   d
      C0380EH     BLOCK     LVL=1     001EH   ---   
      000000H     SYMBOL    AUTO      ---     ---   m
      ---         BLOCKEND  LVL=1     ---     ---   
      C0380AH     LINE      ---       ---     ---   #128
      C0380EH     LINE      ---       ---     ---   #129
      C0380EH     LINE      ---       ---     ---   #134
      C03816H     LINE      ---       ---     ---   #135
L166 LINKER/LOCATER V5.25                                                             09/03/2014  17:57:06  PAGE 56


      C0381CH     LINE      ---       ---     ---   #136
      C03820H     LINE      ---       ---     ---   #138
      C0382CH     LINE      ---       ---     ---   #139
      ---         BLOCKEND  LVL=0     ---     ---   

      C03832H     BLOCK     LVL=0     0016H   ---   sendSYNC
      00000DH     SYMBOL    REG       ---     ---   d
      C03838H     BLOCK     LVL=1     000AH   ---   
      00004EH     SYMBOL    REG       ---     ---   res
      ---         BLOCKEND  LVL=1     ---     ---   
      C03832H     LINE      ---       ---     ---   #150
      C03838H     LINE      ---       ---     ---   #151
      C03838H     LINE      ---       ---     ---   #153
      C0383CH     LINE      ---       ---     ---   #154
      C03840H     LINE      ---       ---     ---   #155
      C03842H     LINE      ---       ---     ---   #156
      ---         BLOCKEND  LVL=0     ---     ---   

      C03848H     BLOCK     LVL=0     0030H   ---   proceedSYNC
      00000DH     SYMBOL    REG       ---     ---   d
      C0384EH     BLOCK     LVL=1     0024H   ---   
      00004EH     SYMBOL    REG       ---     ---   res
      ---         BLOCKEND  LVL=1     ---     ---   
      C03848H     LINE      ---       ---     ---   #166
      C0384EH     LINE      ---       ---     ---   #167
      C0384EH     LINE      ---       ---     ---   #173
      C03854H     LINE      ---       ---     ---   #176
      C0385AH     LINE      ---       ---     ---   #177
      C0385EH     LINE      ---       ---     ---   #179
      C03868H     LINE      ---       ---     ---   #182
      C03870H     LINE      ---       ---     ---   #184
      C03872H     LINE      ---       ---     ---   #186
      ---         BLOCKEND  LVL=0     ---     ---   

      C03878H     BLOCK     LVL=0     0002H   ---   _post_sync
      000008H     SYMBOL    REG       ---     ---   d
      C03878H     LINE      ---       ---     ---   #189
      ---         BLOCKEND  LVL=0     ---     ---   

      C0387AH     BLOCK     LVL=0     0002H   ---   _post_TPDO
      000008H     SYMBOL    REG       ---     ---   d
      C0387AH     LINE      ---       ---     ---   #190
      ---         BLOCKEND  LVL=0     ---     ---   
      C00086H     PUBLIC    LABEL     ---     ---   masterSendNMTstateChange
      C0007EH     PUBLIC    LABEL     ---     ---   _post_SlaveStateChange
      C00084H     PUBLIC    LABEL     ---     ---   proceedSDO
      C00082H     PUBLIC    LABEL     ---     ---   proceedNMTstateChange
      C00080H     PUBLIC    LABEL     ---     ---   _nodeguardError
      C0007AH     PUBLIC    LABEL     ---     ---   _heartbeatError
      C0007CH     PUBLIC    LABEL     ---     ---   _post_SlaveBootup

      C0007AH     BLOCK     LVL=0     0002H   ---   _heartbeatError
      000008H     SYMBOL    REG       ---     ---   d
      000049H     SYMBOL    REG       ---     ---   heartbeatID
      C0007AH     LINE      ---       ---     ---   #12
      ---         BLOCKEND  LVL=0     ---     ---   

L166 LINKER/LOCATER V5.25                                                             09/03/2014  17:57:06  PAGE 57


      C0007CH     BLOCK     LVL=0     0002H   ---   _post_SlaveBootup
      000008H     SYMBOL    REG       ---     ---   d
      000049H     SYMBOL    REG       ---     ---   SlaveID
      C0007CH     LINE      ---       ---     ---   #13
      ---         BLOCKEND  LVL=0     ---     ---   

      C0007EH     BLOCK     LVL=0     0002H   ---   _post_SlaveStateChange
      000008H     SYMBOL    REG       ---     ---   d
      000049H     SYMBOL    REG       ---     ---   nodeId
      00000AH     SYMBOL    REG       ---     ---   newNodeState
      C0007EH     LINE      ---       ---     ---   #14
      ---         BLOCKEND  LVL=0     ---     ---   

      C00080H     BLOCK     LVL=0     0002H   ---   _nodeguardError
      000008H     SYMBOL    REG       ---     ---   d
      000049H     SYMBOL    REG       ---     ---   id
      C00080H     LINE      ---       ---     ---   #15
      ---         BLOCKEND  LVL=0     ---     ---   

      C00082H     BLOCK     LVL=0     0002H   ---   proceedNMTstateChange
      000008H     SYMBOL    REG       ---     ---   d
      000009H     SYMBOL    REG       ---     ---   m
      C00082H     LINE      ---       ---     ---   #19
      ---         BLOCKEND  LVL=0     ---     ---   

      C00084H     BLOCK     LVL=0     0002H   ---   proceedSDO
      000008H     SYMBOL    REG       ---     ---   d
      000009H     SYMBOL    REG       ---     ---   m
      C00084H     LINE      ---       ---     ---   #22
      ---         BLOCKEND  LVL=0     ---     ---   

      C00086H     BLOCK     LVL=0     0002H   ---   masterSendNMTstateChange
      000008H     SYMBOL    REG       ---     ---   d
      000049H     SYMBOL    REG       ---     ---   Node_ID
      00004AH     SYMBOL    REG       ---     ---   cs
      C00086H     LINE      ---       ---     ---   #25
      ---         BLOCKEND  LVL=0     ---     ---   
      C02C18H     PUBLIC    LABEL     ---     ---   TimeDispatch
      C02A78H     PUBLIC    LABEL     ---     ---   SetAlarm
      C02BF4H     PUBLIC    LABEL     ---     ---   DelAlarm
      00C7AAH     PUBLIC    VAR       ---     ---   last_timer_raw
      00C7ACH     PUBLIC    VAR       ---     ---   total_sleep_time
      00C7B0H     PUBLIC    VAR       ---     ---   timers
      00C840H     PUBLIC    VAR       ---     ---   tdcount

      C02A78H     BLOCK     LVL=0     017CH   ---   SetAlarm
      00000CH     SYMBOL    AUTO      ---     ---   d
      00000EH     SYMBOL    REG       ---     ---   id
      00000DH     SYMBOL    REG       ---     ---   callback
      00000EH     SYMBOL    AUTO      ---     ---   value
      000012H     SYMBOL    AUTO      ---     ---   period
      C02A8CH     BLOCK     LVL=1     015CH   ---   
      000000H     SYMBOL    AUTO      ---     ---   row_number
      000002H     SYMBOL    AUTO      ---     ---   row
      C02AACH     BLOCK     LVL=2     0110H   ---   
      000004H     SYMBOL    AUTO      ---     ---   real_timer_value
      000008H     SYMBOL    AUTO      ---     ---   elapsed_time
L166 LINKER/LOCATER V5.25                                                             09/03/2014  17:57:06  PAGE 58


      ---         BLOCKEND  LVL=2     ---     ---   
      ---         BLOCKEND  LVL=1     ---     ---   
      C02A78H     LINE      ---       ---     ---   #57
      C02A8CH     LINE      ---       ---     ---   #58
      C02A8CH     LINE      ---       ---     ---   #63
      C02A9CH     LINE      ---       ---     ---   #65
      C02AACH     LINE      ---       ---     ---   #67
      C02AACH     LINE      ---       ---     ---   #71
      C02ABCH     LINE      ---       ---     ---   #73
      C02AC8H     LINE      ---       ---     ---   #75
      C02AD8H     LINE      ---       ---     ---   #76
      C02B00H     LINE      ---       ---     ---   #78
      C02B34H     LINE      ---       ---     ---   #80
      C02B50H     LINE      ---       ---     ---   #81
      C02B5CH     LINE      ---       ---     ---   #82
      C02B5CH     LINE      ---       ---     ---   #83
      C02B64H     LINE      ---       ---     ---   #84
      C02B70H     LINE      ---       ---     ---   #85
      C02B7CH     LINE      ---       ---     ---   #86
      C02B9CH     LINE      ---       ---     ---   #87
      C02BB0H     LINE      ---       ---     ---   #88
      C02BB8H     LINE      ---       ---     ---   #89
      C02BBCH     LINE      ---       ---     ---   #90
      C02BE4H     LINE      ---       ---     ---   #93
      C02BE8H     LINE      ---       ---     ---   #94
      ---         BLOCKEND  LVL=0     ---     ---   

      C02BF4H     BLOCK     LVL=0     0024H   ---   DelAlarm
      000008H     SYMBOL    REG       ---     ---   handle
      C02BF4H     LINE      ---       ---     ---   #103
      C02BF4H     LINE      ---       ---     ---   #107
      C02BFAH     LINE      ---       ---     ---   #109
      C02C00H     LINE      ---       ---     ---   #110
      C02C04H     LINE      ---       ---     ---   #111
      C02C12H     LINE      ---       ---     ---   #112
      C02C12H     LINE      ---       ---     ---   #113
      C02C16H     LINE      ---       ---     ---   #114
      ---         BLOCKEND  LVL=0     ---     ---   

      C02C18H     BLOCK     LVL=0     014AH   ---   TimeDispatch
      C02C20H     BLOCK     LVL=1     0138H   ---   
      00000EH     SYMBOL    REG       ---     ---   i
      000000H     SYMBOL    AUTO      ---     ---   next_wakeup
      000004H     SYMBOL    AUTO      ---     ---   overrun
      00000AH     SYMBOL    REG       ---     ---   real_total_sleep_time
      00000DH     SYMBOL    REG       ---     ---   row
      ---         BLOCKEND  LVL=1     ---     ---   
      C02C18H     LINE      ---       ---     ---   #121
      C02C20H     LINE      ---       ---     ---   #122
      C02C20H     LINE      ---       ---     ---   #124
      C02C2CH     LINE      ---       ---     ---   #127
      C02C38H     LINE      ---       ---     ---   #129
      C02C44H     LINE      ---       ---     ---   #133
      C02C4EH     LINE      ---       ---     ---   #135
      C02C54H     LINE      ---       ---     ---   #137
      C02C62H     LINE      ---       ---     ---   #139
      C02C6EH     LINE      ---       ---     ---   #141
L166 LINKER/LOCATER V5.25                                                             09/03/2014  17:57:06  PAGE 59


      C02C72H     LINE      ---       ---     ---   #142
      C02C74H     LINE      ---       ---     ---   #147
      C02CA4H     LINE      ---       ---     ---   #148
      C02CA8H     LINE      ---       ---     ---   #150
      C02CC0H     LINE      ---       ---     ---   #151
      C02CC6H     LINE      ---       ---     ---   #152
      C02CC6H     LINE      ---       ---     ---   #153
      C02CC8H     LINE      ---       ---     ---   #157
      C02CDCH     LINE      ---       ---     ---   #160
      C02CF4H     LINE      ---       ---     ---   #161
      C02CFAH     LINE      ---       ---     ---   #162
      C02CFAH     LINE      ---       ---     ---   #163
      C02D06H     LINE      ---       ---     ---   #167
      C02D14H     LINE      ---       ---     ---   #170
      C02D1CH     LINE      ---       ---     ---   #173
      C02D24H     LINE      ---       ---     ---   #175
      C02D2AH     LINE      ---       ---     ---   #177
      C02D34H     LINE      ---       ---     ---   #178
      C02D3AH     LINE      ---       ---     ---   #179
      C02D4CH     LINE      ---       ---     ---   #180
      C02D4CH     LINE      ---       ---     ---   #181
      C02D58H     LINE      ---       ---     ---   #182
      ---         BLOCKEND  LVL=0     ---     ---   
      C0374AH     PUBLIC    LABEL     ---     ---   analog_output_handler
      C03746H     PUBLIC    LABEL     ---     ---   analog_input_handler
      C03698H     PUBLIC    LABEL     ---     ---   digital_output_handler
      C03606H     PUBLIC    LABEL     ---     ---   digital_input_handler

      C03606H     BLOCK     LVL=0     0092H   ---   digital_input_handler
      000006H     SYMBOL    REG       ---     ---   d
      000009H     SYMBOL    REG       ---     ---   newInput
      00004AH     SYMBOL    REG       ---     ---   size
      C03608H     BLOCK     LVL=1     008EH   ---   
      000086H     SYMBOL    REG       ---     ---   loops
      00008EH     SYMBOL    REG       ---     ---   i
      000082H     SYMBOL    REG       ---     ---   input
      000084H     SYMBOL    REG       ---     ---   transmission
      ---         BLOCKEND  LVL=1     ---     ---   
      C03606H     LINE      ---       ---     ---   #28
      C03608H     LINE      ---       ---     ---   #29
      C03608H     LINE      ---       ---     ---   #30
      C0360AH     LINE      ---       ---     ---   #32
      C03618H     LINE      ---       ---     ---   #34
      C0361CH     LINE      ---       ---     ---   #36
      C03626H     LINE      ---       ---     ---   #37
      C0362EH     LINE      ---       ---     ---   #39
      C03634H     LINE      ---       ---     ---   #41
      C03672H     LINE      ---       ---     ---   #44
      C03674H     LINE      ---       ---     ---   #45
      C03674H     LINE      ---       ---     ---   #47
      C03678H     LINE      ---       ---     ---   #48
      C03678H     LINE      ---       ---     ---   #49
      C0367AH     LINE      ---       ---     ---   #50
      C03680H     LINE      ---       ---     ---   #51
      C03684H     LINE      ---       ---     ---   #54
      C0368EH     LINE      ---       ---     ---   #55
      C03694H     LINE      ---       ---     ---   #56
L166 LINKER/LOCATER V5.25                                                             09/03/2014  17:57:06  PAGE 60


      C03694H     LINE      ---       ---     ---   #58
      C03696H     LINE      ---       ---     ---   #59
      ---         BLOCKEND  LVL=0     ---     ---   

      C03698H     BLOCK     LVL=0     00AEH   ---   digital_output_handler
      00000EH     SYMBOL    REG       ---     ---   d
      00000DH     SYMBOL    REG       ---     ---   newOutput
      00004AH     SYMBOL    REG       ---     ---   size
      C036A6H     BLOCK     LVL=1     0094H   ---   
      000000H     SYMBOL    AUTO      ---     ---   loops
      00004FH     SYMBOL    REG       ---     ---   i
      000002H     SYMBOL    AUTO      ---     ---   error
      000004H     SYMBOL    AUTO      ---     ---   type
      000006H     SYMBOL    AUTO      ---     ---   varsize
      ---         BLOCKEND  LVL=1     ---     ---   
      C03698H     LINE      ---       ---     ---   #61
      C036A6H     LINE      ---       ---     ---   #62
      C036A6H     LINE      ---       ---     ---   #64
      C036ACH     LINE      ---       ---     ---   #66
      C036B8H     LINE      ---       ---     ---   #68
      C036BCH     LINE      ---       ---     ---   #70
      C036E0H     LINE      ---       ---     ---   #71
      C036F0H     LINE      ---       ---     ---   #73
      C0370EH     LINE      ---       ---     ---   #74
      C0371CH     LINE      ---       ---     ---   #75
      C0371CH     LINE      ---       ---     ---   #76
      C0372CH     LINE      ---       ---     ---   #77
      C0372EH     LINE      ---       ---     ---   #78
      C03738H     LINE      ---       ---     ---   #79
      C0373AH     LINE      ---       ---     ---   #80
      ---         BLOCKEND  LVL=0     ---     ---   

      C03746H     BLOCK     LVL=0     0004H   ---   analog_input_handler
      000008H     SYMBOL    REG       ---     ---   d
      000009H     SYMBOL    REG       ---     ---   newInput
      00004AH     SYMBOL    REG       ---     ---   size
      C03746H     LINE      ---       ---     ---   #82
      C03746H     LINE      ---       ---     ---   #84
      C03748H     LINE      ---       ---     ---   #85
      ---         BLOCKEND  LVL=0     ---     ---   

      C0374AH     BLOCK     LVL=0     0004H   ---   analog_output_handler
      000008H     SYMBOL    REG       ---     ---   d
      000009H     SYMBOL    REG       ---     ---   newOutput
      00004AH     SYMBOL    REG       ---     ---   size
      C0374AH     LINE      ---       ---     ---   #87
      C0374AH     LINE      ---       ---     ---   #89
      C0374CH     LINE      ---       ---     ---   #90
      ---         BLOCKEND  LVL=0     ---     ---   
      C031DCH     PUBLIC    LABEL     ---     ---   ObjDict_scanIndexOD
      C031C0H     PUBLIC    LABEL     ---     ---   ObjDict_valueRangeTest
      C04000H     PUBLIC    VAR       ---     ---   ObjDict_objdict
      C040AEH     PUBLIC    VAR       ---     ---   ObjDict_iam_a_slave
      00C240H     PUBLIC    VAR       ---     ---   ObjDict_obj1200_COB_ID_Client_to_Server_Receive_SDO
      00C244H     PUBLIC    VAR       ---     ---   ObjDict_PDO_status
      00C256H     PUBLIC    VAR       ---     ---   ObjDict_obj1011_Restore_All_Default_Parameters
      00C25AH     PUBLIC    VAR       ---     ---   ObjDict_obj1010_Save_All_Parameters
L166 LINKER/LOCATER V5.25                                                             09/03/2014  17:57:06  PAGE 61


      00C25EH     PUBLIC    VAR       ---     ---   ObjDict_ObjdictSize
      00C260H     PUBLIC    VAR       ---     ---   ObjDict_obj1800_Event_Timer
      00C262H     PUBLIC    VAR       ---     ---   ObjDict_Index100A
      00C26AH     PUBLIC    VAR       ---     ---   ObjDict_Index1A00
      00C27AH     PUBLIC    VAR       ---     ---   ObjDict_obj1011_Restore_Application_Default_Parameters
      00C27EH     PUBLIC    VAR       ---     ---   ObjDict_obj1400_Event_Timer
      00C280H     PUBLIC    VAR       ---     ---   ObjDict_Index1017_callbacks
      00C282H     PUBLIC    VAR       ---     ---   ObjDict_Index1800_callbacks
      00C28EH     PUBLIC    VAR       ---     ---   ObjDict_Index6207
      00C29EH     PUBLIC    VAR       ---     ---   ObjDict_obj1010_Save_Application_Parameters
      00C2A2H     PUBLIC    VAR       ---     ---   ObjDict_Index6008
      00C2B2H     PUBLIC    VAR       ---     ---   ObjDict_Index6206
      00C2C2H     PUBLIC    VAR       ---     ---   ObjDict_Index1005_callbacks
      00C2C4H     PUBLIC    VAR       ---     ---   ObjDict_Index6007
      00C2D4H     PUBLIC    VAR       ---     ---   ObjDict_obj1018_Vendor_ID
      00C2D8H     PUBLIC    VAR       ---     ---   ObjDict_Index6006
      00C2E8H     PUBLIC    VAR       ---     ---   ObjDict_Index1003_callbacks
      00C2ECH     PUBLIC    VAR       ---     ---   ObjDict_obj1011_Restore_Manufacturer_Default_Parameters
      00C2F0H     PUBLIC    VAR       ---     ---   ObjDict_Index6005
      00C2F8H     PUBLIC    VAR       ---     ---   ObjDict_Index1009
      00C300H     PUBLIC    VAR       ---     ---   ObjDict_Index1018
      00C328H     PUBLIC    VAR       ---     ---   ObjDict_Index6202
      00C338H     PUBLIC    VAR       ---     ---   ObjDict_Index1008
      00C340H     PUBLIC    VAR       ---     ---   ObjDict_Index1017
      00C348H     PUBLIC    VAR       ---     ---   ObjDict_Index1800
      00C378H     PUBLIC    VAR       ---     ---   ObjDict_Index6003
      00C388H     PUBLIC    VAR       ---     ---   ObjDict_obj1010_Save_Manufacturer_Parameters
      00C38CH     PUBLIC    VAR       ---     ---   ObjDict_Index1016
      00C39CH     PUBLIC    VAR       ---     ---   ObjDict_Index6002
      00C3ACH     PUBLIC    VAR       ---     ---   ObjDict_Index6200
      00C3BCH     PUBLIC    VAR       ---     ---   ObjDict_Index1600
      00C3CCH     PUBLIC    VAR       ---     ---   ObjDict_Index1005
      00C3D4H     PUBLIC    VAR       ---     ---   ObjDict_Index1014
      00C3DCH     PUBLIC    VAR       ---     ---   ObjDict_Index6000
      00C3ECH     PUBLIC    VAR       ---     ---   ObjDict_Index1400
      00C41CH     PUBLIC    VAR       ---     ---   ObjDict_Index1003
      00C42CH     PUBLIC    VAR       ---     ---   ObjDict_Index1011
      00C454H     PUBLIC    VAR       ---     ---   ObjDict_Index1200
      00C46CH     PUBLIC    VAR       ---     ---   ObjDict_obj1800_COB_ID_used_by_PDO
      00C470H     PUBLIC    VAR       ---     ---   ObjDict_Index1001
      00C478H     PUBLIC    VAR       ---     ---   ObjDict_Index1010
      00C4A0H     PUBLIC    VAR       ---     ---   ObjDict_Index1000
      00C4A8H     PUBLIC    VAR       ---     ---   ObjDict_obj1400_COB_ID_used_by_PDO
      00C4ACH     PUBLIC    VAR       ---     ---   ObjDict_lastIndex
      00C4B8H     PUBLIC    VAR       ---     ---   ObjDict_obj1011_Restore_Communication_Default_Parameters
      00C4BCH     PUBLIC    VAR       ---     ---   ObjDict_obj1010_Save_Communication_Parameters
      00C4C0H     PUBLIC    VAR       ---     ---   ObjDict_obj1018_Product_Code
      00C4C4H     PUBLIC    VAR       ---     ---   ObjDict_firstIndex
      00C4D0H     PUBLIC    VAR       ---     ---   ObjDict_obj1800_Inhibit_Time
      00C4D2H     PUBLIC    VAR       ---     ---   ObjDict_obj1400_Inhibit_Time
      00C4D4H     PUBLIC    VAR       ---     ---   ObjDict_obj1018_Serial_Number
      00C4D8H     PUBLIC    VAR       ---     ---   ObjDict_obj100A
      00C4E2H     PUBLIC    VAR       ---     ---   ObjDict_obj1A00
      00C4E6H     PUBLIC    VAR       ---     ---   ObjDict_heartBeatTimers
      00C4E8H     PUBLIC    VAR       ---     ---   ObjDict_obj1018_Revision_Number
      00C4ECH     PUBLIC    VAR       ---     ---   ObjDict_obj1009
      00C4F6H     PUBLIC    VAR       ---     ---   ObjDict_obj1200_COB_ID_Server_to_Client_Transmit_SDO
L166 LINKER/LOCATER V5.25                                                             09/03/2014  17:57:06  PAGE 62


      00C4FAH     PUBLIC    VAR       ---     ---   ObjDict_obj1008
      00C504H     PUBLIC    VAR       ---     ---   ObjDict_obj1017
      00C506H     PUBLIC    VAR       ---     ---   ObjDict_obj1016
      00C50AH     PUBLIC    VAR       ---     ---   ObjDict_obj1006
      00C50EH     PUBLIC    VAR       ---     ---   ObjDict_obj1600
      00C512H     PUBLIC    VAR       ---     ---   ObjDict_obj1005
      00C516H     PUBLIC    VAR       ---     ---   ObjDict_obj1014
      00C51AH     PUBLIC    VAR       ---     ---   ObjDict_obj1003
      00C51EH     PUBLIC    VAR       ---     ---   ObjDict_obj1000
      00C522H     PUBLIC    VAR       ---     ---   ObjDict_Data
      00C784H     PUBLIC    VAR       ---     ---   ObjDict_highestSubIndex_obj1010
      00C785H     PUBLIC    VAR       ---     ---   Error_Mode_Outputs_8_Bit
      00C786H     PUBLIC    VAR       ---     ---   ObjDict_bDeviceNodeId
      00C787H     PUBLIC    VAR       ---     ---   Error_Value_Outputs_8_Bit
      00C788H     PUBLIC    VAR       ---     ---   Polarity_Input_8_Bit
      00C789H     PUBLIC    VAR       ---     ---   Global_Interrupt_Enable_Digital
      00C78AH     PUBLIC    VAR       ---     ---   ObjDict_obj1800_Compatibility_Entry
      00C78BH     PUBLIC    VAR       ---     ---   ObjDict_obj1400_Compatibility_Entry
      00C78CH     PUBLIC    VAR       ---     ---   Filter_Constant_Input_8_Bit
      00C78DH     PUBLIC    VAR       ---     ---   Interrupt_Mask_Low_to_High_8_Bit
      00C78EH     PUBLIC    VAR       ---     ---   Interrupt_Mask_High_to_Low_8_Bit
      00C78FH     PUBLIC    VAR       ---     ---   Write_Outputs_8_Bit
      00C790H     PUBLIC    VAR       ---     ---   Interrupt_Mask_Any_Change_8_Bit
      00C791H     PUBLIC    VAR       ---     ---   ObjDict_highestSubIndex_obj1A00
      00C792H     PUBLIC    VAR       ---     ---   ObjDict_highestSubIndex_obj6207
      00C793H     PUBLIC    VAR       ---     ---   ObjDict_highestSubIndex_obj6008
      00C794H     PUBLIC    VAR       ---     ---   ObjDict_highestSubIndex_obj6206
      00C795H     PUBLIC    VAR       ---     ---   ObjDict_highestSubIndex_obj6007
      00C796H     PUBLIC    VAR       ---     ---   ObjDict_highestSubIndex_obj6006
      00C797H     PUBLIC    VAR       ---     ---   Change_Polarity_Outputs_8_Bit
      00C798H     PUBLIC    VAR       ---     ---   ObjDict_highestSubIndex_obj1018
      00C799H     PUBLIC    VAR       ---     ---   ObjDict_highestSubIndex_obj6202
      00C79AH     PUBLIC    VAR       ---     ---   ObjDict_highestSubIndex_obj1800
      00C79BH     PUBLIC    VAR       ---     ---   ObjDict_highestSubIndex_obj6003
      00C79CH     PUBLIC    VAR       ---     ---   ObjDict_obj1001
      00C79DH     PUBLIC    VAR       ---     ---   ObjDict_highestSubIndex_obj1016
      00C79EH     PUBLIC    VAR       ---     ---   ObjDict_obj1800_Transmission_Type
      00C79FH     PUBLIC    VAR       ---     ---   ObjDict_highestSubIndex_obj6002
      00C7A0H     PUBLIC    VAR       ---     ---   ObjDict_highestSubIndex_obj6200
      00C7A1H     PUBLIC    VAR       ---     ---   ObjDict_highestSubIndex_obj1600
      00C7A2H     PUBLIC    VAR       ---     ---   ObjDict_highestSubIndex_obj6000
      00C7A3H     PUBLIC    VAR       ---     ---   ObjDict_highestSubIndex_obj1400
      00C7A4H     PUBLIC    VAR       ---     ---   ObjDict_highestSubIndex_obj1003
      00C7A5H     PUBLIC    VAR       ---     ---   ObjDict_obj1400_Transmission_Type
      00C7A6H     PUBLIC    VAR       ---     ---   Read_Inputs_8_Bit
      00C7A7H     PUBLIC    VAR       ---     ---   ObjDict_highestSubIndex_obj1011
      00C7A8H     PUBLIC    VAR       ---     ---   ObjDict_highestSubIndex_obj1200

      C031C0H     BLOCK     LVL=0     001CH   ---   ObjDict_valueRangeTest
      000048H     SYMBOL    REG       ---     ---   typeValue
      000009H     SYMBOL    REG       ---     ---   value
      C031C0H     LINE      ---       ---     ---   #56
      C031C0H     LINE      ---       ---     ---   #58
      C031C8H     LINE      ---       ---     ---   #59
      C031C8H     LINE      ---       ---     ---   #60
      C031D6H     LINE      ---       ---     ---   #61
      C031D6H     LINE      ---       ---     ---   #62
L166 LINKER/LOCATER V5.25                                                             09/03/2014  17:57:06  PAGE 63


      C031D6H     LINE      ---       ---     ---   #63
      C031DAH     LINE      ---       ---     ---   #64
      ---         BLOCKEND  LVL=0     ---     ---   

      C031DCH     BLOCK     LVL=0     0154H   ---   ObjDict_scanIndexOD
      000008H     SYMBOL    REG       ---     ---   wIndex
      000009H     SYMBOL    REG       ---     ---   errorCode
      00000AH     SYMBOL    REG       ---     ---   callbacks
      C031DCH     BLOCK     LVL=1     0152H   ---   
      00000BH     SYMBOL    REG       ---     ---   i
      ---         BLOCKEND  LVL=1     ---     ---   
      C031DCH     LINE      ---       ---     ---   #426
      C031DCH     LINE      ---       ---     ---   #427
      C031DCH     LINE      ---       ---     ---   #429
      C031E0H     LINE      ---       ---     ---   #430
      C03262H     LINE      ---       ---     ---   #431
      C03266H     LINE      ---       ---     ---   #432
      C0326AH     LINE      ---       ---     ---   #433
      C03274H     LINE      ---       ---     ---   #434
      C0327EH     LINE      ---       ---     ---   #435
      C03282H     LINE      ---       ---     ---   #436
      C03286H     LINE      ---       ---     ---   #437
      C0328AH     LINE      ---       ---     ---   #438
      C0328EH     LINE      ---       ---     ---   #439
      C03292H     LINE      ---       ---     ---   #440
      C03296H     LINE      ---       ---     ---   #441
      C0329AH     LINE      ---       ---     ---   #442
      C032A4H     LINE      ---       ---     ---   #443
      C032A8H     LINE      ---       ---     ---   #444
      C032ACH     LINE      ---       ---     ---   #445
      C032B0H     LINE      ---       ---     ---   #446
      C032B4H     LINE      ---       ---     ---   #447
      C032C0H     LINE      ---       ---     ---   #448
      C032C6H     LINE      ---       ---     ---   #449
      C032CCH     LINE      ---       ---     ---   #450
      C032D2H     LINE      ---       ---     ---   #451
      C032D8H     LINE      ---       ---     ---   #452
      C032DEH     LINE      ---       ---     ---   #453
      C032E4H     LINE      ---       ---     ---   #454
      C032EAH     LINE      ---       ---     ---   #455
      C032F0H     LINE      ---       ---     ---   #456
      C032F6H     LINE      ---       ---     ---   #457
      C032FCH     LINE      ---       ---     ---   #458
      C03302H     LINE      ---       ---     ---   #459
      C03308H     LINE      ---       ---     ---   #460
      C03308H     LINE      ---       ---     ---   #461
      C03314H     LINE      ---       ---     ---   #462
      C03318H     LINE      ---       ---     ---   #463
      C03318H     LINE      ---       ---     ---   #464
      C03320H     LINE      ---       ---     ---   #465
      C0332EH     LINE      ---       ---     ---   #466
      ---         BLOCKEND  LVL=0     ---     ---   
      C03BF2H     PUBLIC    LABEL     ---     ---   ?C_LMUL

      C03BF2H     BLOCK     LVL=0     0018H   ---   ?C_LMUL
      ---         BLOCKEND  LVL=0     ---     ---   
      C03C0AH     PUBLIC    LABEL     ---     ---   ?C_ULDIV
L166 LINKER/LOCATER V5.25                                                             09/03/2014  17:57:06  PAGE 64



      C03C0AH     BLOCK     LVL=0     0092H   ---   ?C_ULDIV
      ---         BLOCKEND  LVL=0     ---     ---   
      C000AAH     PUBLIC    LABEL     ---     ---   memcpy

      C000AAH     BLOCK     LVL=0     000EH   ---   memcpy
      ---         BLOCKEND  LVL=0     ---     ---   
      C0005EH     PUBLIC    LABEL     ---     ---   memcmp

      C0005EH     BLOCK     LVL=0     001CH   ---   memcmp
      ---         BLOCKEND  LVL=0     ---     ---   
      C00098H     PUBLIC    LABEL     ---     ---   memset
      C009B6H     PUBLIC    VAR       ---     ---   ?C_ENDINIT



FUNCTION REGISTER MASKS


FUNCTION . . . . . . . . . . . . . . REG MASK
=============================================


Program Size: data=2867(near=2867) const=2623(near=309) code=13874
L166 RUN COMPLETE.  0 WARNING(S),  0 ERROR(S)
